
cnn-2.elf:     file format elf32-littlenios2
cnn-2.elf
architecture: nios2:r1, flags 0x00000112:
EXEC_P, HAS_SYMS, D_PAGED
start address 0x080001cc

Program Header:
    LOAD off    0x00001000 vaddr 0x08000000 paddr 0x08000000 align 2**12
         filesz 0x00000020 memsz 0x00000020 flags r-x
    LOAD off    0x00001020 vaddr 0x08000020 paddr 0x08000020 align 2**12
         filesz 0x000361b8 memsz 0x000361b8 flags r-x
    LOAD off    0x000371d8 vaddr 0x080361d8 paddr 0x080380fc align 2**12
         filesz 0x00001f24 memsz 0x00001f24 flags rw-
    LOAD off    0x0003a020 vaddr 0x0803a020 paddr 0x0803a020 align 2**12
         filesz 0x00000000 memsz 0x00000280 flags rw-

Sections:
Idx Name          Size      VMA       LMA       File off  Algn
  0 .entry        00000020  08000000  08000000  00001000  2**5
                  CONTENTS, ALLOC, LOAD, READONLY, CODE
  1 .exceptions   000001ac  08000020  08000020  00001020  2**2
                  CONTENTS, ALLOC, LOAD, READONLY, CODE
  2 .text         0003502c  080001cc  080001cc  000011cc  2**2
                  CONTENTS, ALLOC, LOAD, READONLY, CODE
  3 .rodata       00000fe0  080351f8  080351f8  000361f8  2**2
                  CONTENTS, ALLOC, LOAD, READONLY, DATA
  4 .rwdata       00001f24  080361d8  080380fc  000371d8  2**2
                  CONTENTS, ALLOC, LOAD, DATA, SMALL_DATA
  5 .bss          00000280  0803a020  0803a020  0003a020  2**2
                  ALLOC, SMALL_DATA
  6 .new_sdram_controller_0 00000000  0803a2a0  0803a2a0  000390fc  2**0
                  CONTENTS
  7 .generic_tristate_controller_0 00000000  10000000  10000000  000390fc  2**0
                  CONTENTS
  8 .comment      00000023  00000000  00000000  000390fc  2**0
                  CONTENTS, READONLY
  9 .debug_aranges 00001a30  00000000  00000000  00039120  2**3
                  CONTENTS, READONLY, DEBUGGING
 10 .debug_info   000462fd  00000000  00000000  0003ab50  2**0
                  CONTENTS, READONLY, DEBUGGING
 11 .debug_abbrev 00010ad6  00000000  00000000  00080e4d  2**0
                  CONTENTS, READONLY, DEBUGGING
 12 .debug_line   00018301  00000000  00000000  00091923  2**0
                  CONTENTS, READONLY, DEBUGGING
 13 .debug_frame  00005f40  00000000  00000000  000a9c24  2**2
                  CONTENTS, READONLY, DEBUGGING
 14 .debug_str    00006c07  00000000  00000000  000afb64  2**0
                  CONTENTS, READONLY, DEBUGGING
 15 .debug_loc    00023d09  00000000  00000000  000b676b  2**0
                  CONTENTS, READONLY, DEBUGGING
 16 .debug_alt_sim_info 00000060  00000000  00000000  000da474  2**2
                  CONTENTS, READONLY, DEBUGGING
 17 .debug_ranges 00002450  00000000  00000000  000da4d8  2**3
                  CONTENTS, READONLY, DEBUGGING
 18 .thread_model 00000003  00000000  00000000  000e3509  2**0
                  CONTENTS, READONLY
 19 .cpu          0000000c  00000000  00000000  000e350c  2**0
                  CONTENTS, READONLY
 20 .qsys         00000001  00000000  00000000  000e3518  2**0
                  CONTENTS, READONLY
 21 .simulation_enabled 00000001  00000000  00000000  000e3519  2**0
                  CONTENTS, READONLY
 22 .profiling_enabled 00000001  00000000  00000000  000e351a  2**0
                  CONTENTS, READONLY
 23 .stderr_dev   0000000b  00000000  00000000  000e351b  2**0
                  CONTENTS, READONLY
 24 .stdin_dev    0000000b  00000000  00000000  000e3526  2**0
                  CONTENTS, READONLY
 25 .stdout_dev   0000000b  00000000  00000000  000e3531  2**0
                  CONTENTS, READONLY
 26 .sopc_system_name 0000000b  00000000  00000000  000e353c  2**0
                  CONTENTS, READONLY
 27 .quartus_project_dir 0000003d  00000000  00000000  000e3547  2**0
                  CONTENTS, READONLY
 28 .jdi          0000426c  00000000  00000000  000e3584  2**0
                  CONTENTS, READONLY
 29 .sopcinfo     00081ba1  00000000  00000000  000e77f0  2**0
                  CONTENTS, READONLY
SYMBOL TABLE:
08000000 l    d  .entry	00000000 .entry
08000020 l    d  .exceptions	00000000 .exceptions
080001cc l    d  .text	00000000 .text
080351f8 l    d  .rodata	00000000 .rodata
080361d8 l    d  .rwdata	00000000 .rwdata
0803a020 l    d  .bss	00000000 .bss
0803a2a0 l    d  .new_sdram_controller_0	00000000 .new_sdram_controller_0
10000000 l    d  .generic_tristate_controller_0	00000000 .generic_tristate_controller_0
00000000 l    d  .comment	00000000 .comment
00000000 l    d  .debug_aranges	00000000 .debug_aranges
00000000 l    d  .debug_info	00000000 .debug_info
00000000 l    d  .debug_abbrev	00000000 .debug_abbrev
00000000 l    d  .debug_line	00000000 .debug_line
00000000 l    d  .debug_frame	00000000 .debug_frame
00000000 l    d  .debug_str	00000000 .debug_str
00000000 l    d  .debug_loc	00000000 .debug_loc
00000000 l    d  .debug_alt_sim_info	00000000 .debug_alt_sim_info
00000000 l    d  .debug_ranges	00000000 .debug_ranges
00000000 l    df *ABS*	00000000 ../cnn-2_bsp//obj/HAL/src/crt0.o
08000214 l       .text	00000000 alt_after_alt_main
00000000 l    df *ABS*	00000000 alt_exception_entry.o
08000094 l       .exceptions	00000000 alt_exception_unknown
00000000 l    df *ABS*	00000000 alt_irq_handler.c
00000000 l    df *ABS*	00000000 kann.c
08000218 l     F .text	00000088 kad_len
080002a0 l     F .text	000002ec kad_ext_collate
0800058c l     F .text	00000168 kad_ext_sync
08000d74 l     F .text	000000dc kann_switch_core
0800134c l     F .text	000000d4 kann_cost_core
080352f8 l     O .rodata	0000000f __func__.4236
080017dc l     F .text	00000324 kann_class_error_core
08002624 l     F .text	00000074 cmul_norm2
080031d0 l     F .text	0000004c kann_cmul_norm
08035308 l     O .rodata	00000010 __func__.4545
00000000 l    df *ABS*	00000000 kann_data.c
00000000 l    df *ABS*	00000000 kautodiff.c
08005508 l     F .text	00000088 kad_len
08005590 l     F .text	000000bc kad_new_core
0800564c l     F .text	000000ec kad_vleaf
0800587c l     F .text	00000128 kad_finalize_node
080059a4 l     F .text	0000007c kad_op2_core
08005a20 l     F .text	00000064 kad_op1_core
08005f8c l     F .text	000000fc conv_find_par
08006088 l     F .text	000000ec conv2d_gen_aux
08006374 l     F .text	00000098 conv1d_gen_aux
08006670 l     F .text	000000c8 kad_pooling_general
0800690c l     F .text	00000098 kad_reduce_general
08007008 l     F .text	000001c0 kad_mark_back
080071c8 l     F .text	00000148 kad_allocate_internal
080355d4 l     O .rodata	00000012 __func__.4297
08007f50 l     F .text	00000180 kad_propagate_marks
080355e8 l     O .rodata	00000009 __func__.4383
08008600 l     F .text	00000214 kad_save1
08008814 l     F .text	00000288 kad_load1
08008d14 l     F .text	0000016c kad_dup1
08009134 l     F .text	000000d8 push_nodes
0800920c l     F .text	00000938 kad_unroll_helper
080355f4 l     O .rodata	00000012 __func__.4490
0800a09c l     F .text	000000cc kad_sdot
0800a168 l     F .text	000000f0 kad_saxpy_inlined
08038074 l     O .rwdata	00000004 x.4602
080361d8 l     O .rwdata	00000020 kad_rng_dat
0800a778 l     F .text	000001a8 kad_splitmix64
0800a920 l     F .text	0000016c kad_xoroshiro128plus_next
0800aa8c l     F .text	00000190 kad_xoroshiro128plus_jump
08035608 l     O .rodata	00000010 JUMP.4651
0800b154 l     F .text	00000090 kad_copy_dim1
08035618 l     O .rodata	0000000b __func__.4703
08035624 l     O .rodata	0000000b __func__.4718
08035630 l     O .rodata	0000000b __func__.4733
0803563c l     O .rodata	00000012 __func__.4829
08035650 l     O .rodata	00000013 __func__.4868
08035664 l     O .rodata	0000000f __func__.4905
08035674 l     O .rodata	0000000d __func__.4946
08035684 l     O .rodata	0000000e __func__.4971
08035694 l     O .rodata	0000000f __func__.5032
08038078 l     O .rwdata	00000004 tiny.5071
0803807c l     O .rwdata	00000004 tiny.5088
08038080 l     O .rwdata	00000004 tiny.5105
080356a4 l     O .rodata	0000000f __func__.5140
080356b4 l     O .rodata	0000000b __func__.5277
080356c0 l     O .rodata	0000000d __func__.5321
080356d0 l     O .rodata	0000000e __func__.5345
080121d0 l     F .text	00000130 conv_rot180
08012300 l     F .text	000001ac conv2d_move_1to3
080124ac l     F .text	000001f0 conv2d_add_3to1
0801477c l     F .text	00000144 conv1d_move_1to2
080148c0 l     F .text	000001b0 conv1d_add_2to1
08016f28 l     F .text	00000164 kad_add_delta
00000000 l    df *ABS*	00000000 mnist-cnn.c
08038084 l     O .rwdata	00000005 __func__.3864
00000000 l    df *ABS*	00000000 sf_cos.c
00000000 l    df *ABS*	00000000 sf_sin.c
00000000 l    df *ABS*	00000000 w_log.c
00000000 l    df *ABS*	00000000 w_sqrt.c
00000000 l    df *ABS*	00000000 wf_exp.c
00000000 l    df *ABS*	00000000 wf_log.c
00000000 l    df *ABS*	00000000 wf_sqrt.c
00000000 l    df *ABS*	00000000 e_log.c
00000000 l    df *ABS*	00000000 e_sqrt.c
00000000 l    df *ABS*	00000000 ef_exp.c
08038094 l     O .rwdata	00000008 ln2HI
0803808c l     O .rwdata	00000008 ln2LO
0803809c l     O .rwdata	00000008 halF
00000000 l    df *ABS*	00000000 ef_log.c
00000000 l    df *ABS*	00000000 ef_rem_pio2.c
0803593c l     O .rodata	00000318 two_over_pi
080358bc l     O .rodata	00000080 npio2_hw
00000000 l    df *ABS*	00000000 ef_sqrt.c
00000000 l    df *ABS*	00000000 kf_cos.c
00000000 l    df *ABS*	00000000 kf_rem_pio2.c
08035c80 l     O .rodata	0000000c init_jk
08035c54 l     O .rodata	0000002c PIo2
00000000 l    df *ABS*	00000000 kf_sin.c
00000000 l    df *ABS*	00000000 s_fpclassify.c
00000000 l    df *ABS*	00000000 s_lib_ver.c
00000000 l    df *ABS*	00000000 s_matherr.c
00000000 l    df *ABS*	00000000 s_nan.c
00000000 l    df *ABS*	00000000 sf_fabs.c
00000000 l    df *ABS*	00000000 sf_finite.c
00000000 l    df *ABS*	00000000 sf_floor.c
00000000 l    df *ABS*	00000000 sf_fpclassify.c
00000000 l    df *ABS*	00000000 sf_scalbn.c
00000000 l    df *ABS*	00000000 sf_copysign.c
00000000 l    df *ABS*	00000000 libgcc2.c
00000000 l    df *ABS*	00000000 libgcc2.c
00000000 l    df *ABS*	00000000 lib2-divmod.c
00000000 l    df *ABS*	00000000 addsf3.c
00000000 l    df *ABS*	00000000 divsf3.c
00000000 l    df *ABS*	00000000 eqsf2.c
00000000 l    df *ABS*	00000000 gesf2.c
00000000 l    df *ABS*	00000000 lesf2.c
00000000 l    df *ABS*	00000000 mulsf3.c
00000000 l    df *ABS*	00000000 subsf3.c
00000000 l    df *ABS*	00000000 fixsfsi.c
00000000 l    df *ABS*	00000000 floatsisf.c
00000000 l    df *ABS*	00000000 adddf3.c
00000000 l    df *ABS*	00000000 divdf3.c
00000000 l    df *ABS*	00000000 eqdf2.c
00000000 l    df *ABS*	00000000 gedf2.c
00000000 l    df *ABS*	00000000 ledf2.c
00000000 l    df *ABS*	00000000 muldf3.c
00000000 l    df *ABS*	00000000 subdf3.c
00000000 l    df *ABS*	00000000 fixdfsi.c
00000000 l    df *ABS*	00000000 floatsidf.c
00000000 l    df *ABS*	00000000 extendsfdf2.c
00000000 l    df *ABS*	00000000 truncdfsf2.c
00000000 l    df *ABS*	00000000 libgcc2.c
00000000 l    df *ABS*	00000000 libgcc2.c
00000000 l    df *ABS*	00000000 abort.c
00000000 l    df *ABS*	00000000 assert.c
00000000 l    df *ABS*	00000000 calloc.c
00000000 l    df *ABS*	00000000 mallocr.c
00000000 l    df *ABS*	00000000 errno.c
00000000 l    df *ABS*	00000000 exit.c
00000000 l    df *ABS*	00000000 fclose.c
00000000 l    df *ABS*	00000000 fflush.c
00000000 l    df *ABS*	00000000 fgets.c
00000000 l    df *ABS*	00000000 fileno.c
00000000 l    df *ABS*	00000000 findfp.c
0801fce0 l     F .text	00000014 __fp_unlock
0801fd0c l     F .text	000001a8 __sinit.part.1
0801feb4 l     F .text	00000014 __fp_lock
00000000 l    df *ABS*	00000000 fiprintf.c
00000000 l    df *ABS*	00000000 fopen.c
00000000 l    df *ABS*	00000000 fprintf.c
00000000 l    df *ABS*	00000000 fputc.c
00000000 l    df *ABS*	00000000 fputs.c
00000000 l    df *ABS*	00000000 fread.c
00000000 l    df *ABS*	00000000 mallocr.c
00000000 l    df *ABS*	00000000 fseek.c
00000000 l    df *ABS*	00000000 fseeko.c
00000000 l    df *ABS*	00000000 fstatr.c
00000000 l    df *ABS*	00000000 fvwrite.c
00000000 l    df *ABS*	00000000 fwalk.c
00000000 l    df *ABS*	00000000 fwrite.c
00000000 l    df *ABS*	00000000 impure.c
080363f8 l     O .rwdata	00000424 impure_data
00000000 l    df *ABS*	00000000 int_errno.c
00000000 l    df *ABS*	00000000 makebuf.c
00000000 l    df *ABS*	00000000 malloc.c
00000000 l    df *ABS*	00000000 mallocr.c
00000000 l    df *ABS*	00000000 memchr.c
00000000 l    df *ABS*	00000000 memcpy.c
00000000 l    df *ABS*	00000000 memmove.c
00000000 l    df *ABS*	00000000 memset.c
00000000 l    df *ABS*	00000000 openr.c
00000000 l    df *ABS*	00000000 printf.c
00000000 l    df *ABS*	00000000 putc.c
00000000 l    df *ABS*	00000000 realloc.c
00000000 l    df *ABS*	00000000 mallocr.c
00000000 l    df *ABS*	00000000 refill.c
08022f00 l     F .text	00000028 lflush
00000000 l    df *ABS*	00000000 sbrkr.c
00000000 l    df *ABS*	00000000 signal.c
00000000 l    df *ABS*	00000000 signalr.c
00000000 l    df *ABS*	00000000 stdio.c
00000000 l    df *ABS*	00000000 strcmp.c
00000000 l    df *ABS*	00000000 strdup.c
00000000 l    df *ABS*	00000000 strdup_r.c
00000000 l    df *ABS*	00000000 strlen.c
00000000 l    df *ABS*	00000000 strncmp.c
00000000 l    df *ABS*	00000000 strtod.c
08023950 l     F .text	00000070 sulp
08035df4 l     O .rodata	00000014 fpi.2737
08035e08 l     O .rodata	00000028 tinytens
08035de0 l     O .rodata	00000014 fpinan.2773
00000000 l    df *ABS*	00000000 vfiprintfr_1.c
00000000 l    df *ABS*	00000000 vfprintf.c
08035e72 l     O .rodata	00000010 zeroes.4404
08027344 l     F .text	000000c8 __sbprintf
08035e82 l     O .rodata	00000010 blanks.4403
00000000 l    df *ABS*	00000000 wbuf.c
00000000 l    df *ABS*	00000000 writer.c
00000000 l    df *ABS*	00000000 wsetup.c
00000000 l    df *ABS*	00000000 closer.c
00000000 l    df *ABS*	00000000 __call_atexit.c
00000000 l    df *ABS*	00000000 dtoa.c
08027934 l     F .text	0000020c quorem
00000000 l    df *ABS*	00000000 flags.c
00000000 l    df *ABS*	00000000 gdtoa-gethex.c
0802928c l     F .text	0000010c rshift
00000000 l    df *ABS*	00000000 gdtoa-hexnan.c
00000000 l    df *ABS*	00000000 isattyr.c
00000000 l    df *ABS*	00000000 locale.c
08036c44 l     O .rwdata	00000020 lc_ctype_charset
08036c24 l     O .rwdata	00000020 lc_message_charset
08036c64 l     O .rwdata	00000038 lconv
00000000 l    df *ABS*	00000000 lseekr.c
00000000 l    df *ABS*	00000000 mprec.c
08035fb0 l     O .rodata	0000000c p05.2768
00000000 l    df *ABS*	00000000 readr.c
00000000 l    df *ABS*	00000000 vfprintf.c
0802b188 l     F .text	00000108 __sprint_r.part.0
080360e4 l     O .rodata	00000010 blanks.4348
080360d4 l     O .rodata	00000010 zeroes.4349
0802c744 l     F .text	000000c8 __sbprintf
00000000 l    df *ABS*	00000000 fputwc.c
00000000 l    df *ABS*	00000000 wcrtomb.c
00000000 l    df *ABS*	00000000 wctomb_r.c
00000000 l    df *ABS*	00000000 libgcc2.c
00000000 l    df *ABS*	00000000 libgcc2.c
00000000 l    df *ABS*	00000000 libgcc2.c
00000000 l    df *ABS*	00000000 floatunsidf.c
00000000 l    df *ABS*	00000000 alt_close.c
0802d84c l     F .text	00000048 alt_get_errno
00000000 l    df *ABS*	00000000 alt_dev.c
0802d970 l     F .text	00000038 alt_dev_null_write
00000000 l    df *ABS*	00000000 alt_errno.c
00000000 l    df *ABS*	00000000 alt_exit.c
00000000 l    df *ABS*	00000000 alt_fstat.c
0802da10 l     F .text	00000048 alt_get_errno
00000000 l    df *ABS*	00000000 alt_getpid.c
00000000 l    df *ABS*	00000000 alt_gmon.c
080380d8 l     O .rwdata	00000004 pcsample_need_init
0803a03c l     O .bss	00000004 s_pcsamples
080380dc l     O .rwdata	00000004 s_low_pc
080380e0 l     O .rwdata	00000004 s_high_pc
0803a088 l     O .bss	00000018 s_nios2_pcsample_alarm
0803a040 l     O .bss	00000004 mcount_slab_ptr
0803a044 l     O .bss	00000004 mcount_slab_size
0802db40 l     F .text	0000007c mcount_allocate
0802dcbc l     F .text	000000cc nios2_pcsample_init
0802dd88 l     F .text	0000007c nios2_pcsample
00000000 l    df *ABS*	00000000 alt_isatty.c
0802de04 l     F .text	00000048 alt_get_errno
00000000 l    df *ABS*	00000000 alt_kill.c
0802defc l     F .text	00000048 alt_get_errno
00000000 l    df *ABS*	00000000 alt_load.c
0802e080 l     F .text	00000074 alt_load_section
00000000 l    df *ABS*	00000000 alt_lseek.c
0802e184 l     F .text	00000048 alt_get_errno
00000000 l    df *ABS*	00000000 alt_main.c
00000000 l    df *ABS*	00000000 alt_malloc_lock.c
00000000 l    df *ABS*	00000000 alt_open.c
0802e430 l     F .text	00000048 alt_get_errno
0802e478 l     F .text	000000d0 alt_file_locked
00000000 l    df *ABS*	00000000 alt_read.c
0802e6a8 l     F .text	00000048 alt_get_errno
00000000 l    df *ABS*	00000000 alt_release_fd.c
00000000 l    df *ABS*	00000000 alt_sbrk.c
080380e4 l     O .rwdata	00000004 heap_end
00000000 l    df *ABS*	00000000 alt_tick.c
00000000 l    df *ABS*	00000000 alt_write.c
0802ead4 l     F .text	00000048 alt_get_errno
00000000 l    df *ABS*	00000000 alt_sys_init.c
0802ec20 l     F .text	00000040 alt_dev_reg
08036e68 l     O .rwdata	000000dc generic_tristate_controller_0
08036f44 l     O .rwdata	00001060 jtag_uart_0
08037fa4 l     O .rwdata	00000030 altera_ro_zipfs
08037fd4 l     O .rwdata	00000048 video_character_buffer_with_dma_0
0803801c l     O .rwdata	00000054 video_pixel_buffer_dma_0
00000000 l    df *ABS*	00000000 altera_avalon_cfi_flash.c
0802efdc l     F .text	00000040 alt_flash_device_register
00000000 l    df *ABS*	00000000 altera_avalon_cfi_flash_table.c
0802ff28 l     F .text	0000008c alt_read_16bit_query_entry
00000000 l    df *ABS*	00000000 altera_avalon_jtag_uart_fd.c
00000000 l    df *ABS*	00000000 altera_avalon_jtag_uart_init.c
08031048 l     F .text	00000218 altera_avalon_jtag_uart_irq
08031260 l     F .text	000000ac altera_avalon_jtag_uart_timeout
00000000 l    df *ABS*	00000000 altera_avalon_jtag_uart_ioctl.c
00000000 l    df *ABS*	00000000 altera_avalon_jtag_uart_read.c
00000000 l    df *ABS*	00000000 altera_avalon_jtag_uart_write.c
00000000 l    df *ABS*	00000000 altera_avalon_timer_sc.c
080318d4 l     F .text	00000084 alt_avalon_timer_sc_irq
00000000 l    df *ABS*	00000000 altera_ro_zipfs.c
080319e0 l     F .text	00000080 read_word
08031a60 l     F .text	00000060 read_word_inc
08031ac0 l     F .text	00000050 read_half_word
08031b10 l     F .text	00000060 read_half_word_inc
08031b70 l     F .text	0000012c check_file_header
08031ddc l     F .text	000000b0 check_directory_table
08031e8c l     F .text	000000b8 find_directory_entry
08031f44 l     F .text	00000184 find_file_entry_by_name
080320c8 l     F .text	000001a8 find_file_entry
00000000 l    df *ABS*	00000000 altera_up_avalon_video_character_buffer_with_dma.c
00000000 l    df *ABS*	00000000 altera_up_avalon_video_pixel_buffer_dma.c
00000000 l    df *ABS*	00000000 alt_alarm_start.c
00000000 l    df *ABS*	00000000 alt_dcache_flush.c
00000000 l    df *ABS*	00000000 alt_dcache_flush_all.c
00000000 l    df *ABS*	00000000 alt_dev_llist_insert.c
08033aa0 l     F .text	00000048 alt_get_errno
00000000 l    df *ABS*	00000000 alt_do_ctors.c
00000000 l    df *ABS*	00000000 alt_do_dtors.c
00000000 l    df *ABS*	00000000 alt_find_dev.c
00000000 l    df *ABS*	00000000 alt_find_file.c
00000000 l    df *ABS*	00000000 alt_flash_dev.c
00000000 l    df *ABS*	00000000 alt_fs_reg.c
00000000 l    df *ABS*	00000000 alt_get_fd.c
00000000 l    df *ABS*	00000000 alt_icache_flush_all.c
00000000 l    df *ABS*	00000000 alt_iic.c
00000000 l    df *ABS*	00000000 alt_iic_isr_register.c
00000000 l    df *ABS*	00000000 alt_io_redirect.c
0803434c l     F .text	000000d0 alt_open_fd
00000000 l    df *ABS*	00000000 alt_irq_vars.c
00000000 l    df *ABS*	00000000 altera_nios2_qsys_irq.c
00000000 l    df *ABS*	00000000 altera_avalon_cfi_flash_amd.c
0803488c l     F .text	000000d8 alt_write_word_amd
08034764 l     F .text	00000128 alt_wait_for_command_to_complete_amd
00000000 l    df *ABS*	00000000 altera_avalon_cfi_flash_intel.c
08034b88 l     F .text	00000188 alt_unlock_block_intel
08034d10 l     F .text	000000e0 alt_write_word_intel
00000000 l    df *ABS*	00000000 alt_icache_flush.c
00000000 l    df *ABS*	00000000 alt_usleep.c
00000000 l    df *ABS*	00000000 alt_busy_sleep.c
00000000 l    df *ABS*	00000000 atexit.c
00000000 l    df *ABS*	00000000 memcmp.c
00000000 l    df *ABS*	00000000 __atexit.c
0800bc68 g     F .text	00000288 kad_op_matmul
0802af84 g     F .text	00000080 _mprec_log10
08006d88 g     F .text	00000118 kad_reshape
0802b088 g     F .text	00000094 __any_on
08029e3c g     F .text	00000060 _isatty_r
08035fbc g     O .rodata	00000028 __mprec_tinytens
0802e2ac g     F .text	00000088 alt_main
08033280 g     F .text	00000258 alt_up_pixel_buffer_dma_draw_vline
08015f30 g     F .text	000004f4 kad_op_max1d
0802f95c g     F .text	0000004c alt_read_query_entry_32bit
0803a1a0 g     O .bss	00000100 alt_irq
08029fd8 g     F .text	0000006c _lseek_r
080180bc g     F .text	000001a8 log
0802f0b8 g     F .text	000002b4 alt_flash_cfi_write
08005bec g     F .text	00000048 kad_ce_multi
08018264 g     F .text	0000013c sqrt
080380fc g       *ABS*	00000000 __flash_rwdata_start
08005b5c g     F .text	00000048 kad_cmul
080291d4 g     F .text	000000b8 __sflags
0801ddb4 g     F .text	00000090 .hidden __eqdf2
08008224 g     F .text	000000d8 kad_eval_at
0803a2a0 g       *ABS*	00000000 __alt_heap_start
0802346c g     F .text	00000068 _kill_r
080023bc g     F .text	000000f4 kann_layer_dense2
080227a4 g     F .text	00000048 printf
08003658 g     F .text	00000070 kann_layer_conv1d
0802ca38 g     F .text	000000a8 _wcrtomb_r
08005738 g     F .text	0000006c kad_const
080231e0 g     F .text	00000090 _signal_r
0800e100 g     F .text	000003f4 kad_op_reshape
0800a364 g     F .text	00000058 kad_saxpy
080235e0 g     F .text	00000068 __sseek
08020084 g     F .text	0000001c __sinit
080327dc g     F .text	00000108 alt_up_char_buffer_string
0802740c g     F .text	0000014c __swbuf_r
0800c404 g     F .text	000001cc kad_op_log
08029e9c g     F .text	00000088 _setlocale_r
0800b900 g     F .text	00000368 kad_op_cmul
0801fec8 g     F .text	00000074 __sfmoreglue
08000ab0 g     F .text	000000d0 kann_unroll_array
0802e364 g     F .text	00000030 __malloc_unlock
080239c0 g     F .text	00001604 _strtod_r
0801baf4 g     F .text	0000044c .hidden __divsf3
08005cc4 g     F .text	00000048 kad_mse
0800ad60 g     F .text	0000006c kad_rand
080035d4 g     F .text	00000084 kann_layer_conv2d
08032704 g     F .text	000000d8 alt_up_char_buffer_draw
08003c2c g     F .text	000001f8 kann_grad_clip
08022468 g     F .text	00000164 memmove
08020060 g     F .text	00000024 _cleanup
08002dcc g     F .text	0000004c kann_new_vec
0801269c g     F .text	00001a64 kad_op_conv2d
0802a044 g     F .text	000000b4 _Balloc
0800bef0 g     F .text	0000020c kad_op_square
0801ca5c g     F .text	0000007c .hidden __fixsfsi
08000c64 g     F .text	00000094 kann_delete_unrolled
08032994 g     F .text	000001a0 alt_up_pixel_buffer_dma_draw
0801de44 g     F .text	000000e4 .hidden __gtdf2
0801f6ac g     F .text	0000001c __errno
080361f8 g     O .rwdata	00000100 kad_op_list
0802fb30 g     F .text	0000005c alt_write_flash_command_32bit_device_16bit_mode
0803294c g     F .text	00000048 alt_up_pixel_buffer_dma_open_dev
08001420 g     F .text	0000011c kann_eval
08000000 g     F .entry	0000001c __reset
08019958 g     F .text	00000530 __ieee754_rem_pio2f
08005acc g     F .text	00000048 kad_sub
08004bdc g     F .text	000000d4 kann_apply1
08018518 g     F .text	00000184 logf
08000020 g       *ABS*	00000000 __flash_exceptions_start
0802101c g     F .text	00000068 _fstat_r
0802f5dc g     F .text	000002ec alt_flash_program_block
0803a020 g     O .bss	00000004 errno
08007310 g     F .text	000002ac kad_sync_dim
08023544 g     F .text	00000014 __seofread
0803a04c g     O .bss	00000004 alt_argv
08040070 g       *ABS*	00000000 _gp
08034e8c g     F .text	0000003c usleep
080010f4 g     F .text	00000258 kann_feed_dim
0801c56c g     F .text	000004f0 .hidden __subsf3
08032b34 g     F .text	00000068 alt_up_pixel_buffer_dma_change_back_buffer_address
0802db14 g     F .text	0000002c getpid
08002fd0 g     F .text	0000004c kann_layer_dropout
08002f24 g     F .text	00000060 kann_layer_input
0800d484 g     F .text	000002a4 kad_op_sample_normal
0801869c g     F .text	00000120 sqrtf
0801fc44 g     F .text	00000028 fgets
08036cc4 g     O .rwdata	00000180 alt_fd_list
080048bc g     F .text	00000320 kann_cost_fnn1
08005c34 g     F .text	00000048 kad_ce_bin
080362f8 g     O .rwdata	00000100 kad_op_name
08033c70 g     F .text	0000009c alt_find_dev
08022314 g     F .text	00000154 memcpy
08029bd4 g     F .text	00000268 __hexnan
080082fc g     F .text	00000304 kad_grad
080328e4 g     F .text	00000068 alt_up_char_buffer_clear
0801fcf4 g     F .text	00000018 _cleanup_r
0801f0d8 g     F .text	000000e8 .hidden __floatsidf
08033ef4 g     F .text	0000008c alt_fs_reg
0803441c g     F .text	00000088 alt_io_redirect
0801df28 g     F .text	000000f8 .hidden __ltdf2
080351f8 g       *ABS*	00000000 __DTOR_END__
08032270 g     F .text	0000009c alt_ro_zipfs_open
080194b4 g     F .text	000004a4 __ieee754_logf
080067c8 g     F .text	00000048 kad_stack
0801af94 g     F .text	00000080 __fpclassifyd
0802aed4 g     F .text	000000b0 __ratio
0802c71c g     F .text	00000028 __vfiprintf_internal
08006cbc g     F .text	000000cc kad_concat
08032c08 g     F .text	00000040 alt_up_pixel_buffer_dma_check_swap_buffers_status
0803147c g     F .text	00000228 altera_avalon_jtag_uart_read
080219cc g     F .text	00000020 malloc
08022768 g     F .text	0000003c _printf_r
0801b550 g     F .text	00000070 .hidden __udivsi3
0802de4c g     F .text	000000b0 isatty
08023270 g     F .text	000000c8 _raise_r
0801f524 g     F .text	00000074 __assert_func
0803600c g     O .rodata	000000c8 __mprec_tens
08033064 g     F .text	0000021c alt_up_pixel_buffer_dma_draw_hline
080057a4 g     F .text	0000006c kad_feed
08029f24 g     F .text	00000018 __locale_charset
0801c084 g     F .text	000000e0 .hidden __lesf2
0800adcc g     F .text	000000d8 kad_drand
0802cc50 g     F .text	00000080 .hidden __fixunsdfsi
08034df0 g     F .text	0000009c alt_icache_flush
0803a02c g     O .bss	00000004 __malloc_top_pad
080234d4 g     F .text	00000010 _getpid_r
08038070 g     O .rwdata	00000004 kann_verbose
0801b190 g     F .text	00000064 __fpclassifyf
08006780 g     F .text	00000048 kad_max
080380b8 g     O .rwdata	00000004 __mb_cur_max
08001bd0 g     F .text	00000044 kann_switch
08029f84 g     F .text	00000018 _localeconv_r
0802a498 g     F .text	00000048 __i2b
08021084 g     F .text	000004c8 __sfvwrite_r
08023338 g     F .text	000000b4 __sigtramp_r
0800ac1c g     F .text	000000bc kad_srand
0801b05c g     F .text	00000024 finitef
08023108 g     F .text	00000060 _sbrk_r
08034964 g     F .text	0000008c alt_program_intel
080335ac g     F .text	00000090 helper_plot_pixel
080069ec g     F .text	00000048 kad_reduce_mean
0801166c g     F .text	000002d4 kad_op_avg
08008a9c g     F .text	0000012c kad_save
0801b040 g     F .text	0000001c fabsf
0802b11c g     F .text	0000006c _read_r
080339c8 g     F .text	00000084 alt_dcache_flush
080380d0 g     O .rwdata	00000004 alt_max_fd
0802f8c8 g     F .text	00000048 alt_read_query_entry_8bit
0801f70c g     F .text	000000fc _fclose_r
08006a34 g     F .text	0000006c kad_dropout
080349f0 g     F .text	00000198 alt_erase_block_intel
0801fab8 g     F .text	0000003c fflush
0803a028 g     O .bss	00000004 __malloc_max_sbrked_mem
0801f1c0 g     F .text	0000011c .hidden __extendsfdf2
08010004 g     F .text	000008b0 kad_op_stdnorm
0801cc08 g     F .text	000008b8 .hidden __adddf3
0801bf40 g     F .text	00000080 .hidden __nesf2
08006aa0 g     F .text	00000064 kad_sample_normal
0802ac64 g     F .text	00000118 __b2d
08007c98 g     F .text	000000e8 kad_delete
08032c48 g     F .text	00000134 alt_up_pixel_buffer_dma_clear_screen
0802d254 g     F .text	00000544 .hidden __umoddi3
0802e1cc g     F .text	000000e0 lseek
08002860 g     F .text	00000408 kann_layer_gru2
080380a4 g     O .rwdata	00000004 __fdlib_version
080380a8 g     O .rwdata	00000004 _global_impure_ptr
08022990 g     F .text	00000570 _realloc_r
0801add0 g     F .text	000001c4 __kernel_sinf
0803a2a0 g       *ABS*	00000000 __bss_end
08034250 g     F .text	000000fc alt_iic_isr_register
08032d7c g     F .text	000002e8 alt_up_pixel_buffer_dma_draw_box
0802e9c0 g     F .text	00000114 alt_tick
08035ea4 g     O .rodata	00000100 __hexdig
0802ccd0 g     F .text	00000584 .hidden __udivdi3
0802c97c g     F .text	00000030 _fputwc_r
08006290 g     F .text	000000e4 kad_max2d
08035fe4 g     O .rodata	00000028 __mprec_bigtens
0802a258 g     F .text	00000110 __s2b
0801f500 g     F .text	00000024 abort
0802d798 g     F .text	000000b4 .hidden __floatunsidf
0802a984 g     F .text	0000006c __mcmp
080064f8 g     F .text	000000bc kad_max1d
080200e0 g     F .text	00000024 __fp_lock_all
080341f8 g     F .text	00000058 alt_ic_irq_enabled
08005ba4 g     F .text	00000048 kad_matmul
08019178 g     F .text	0000033c __ieee754_expf
0802e918 g     F .text	000000a8 alt_alarm_stop
08006b04 g     F .text	000000d8 kad_slice
08009b44 g     F .text	000000b8 kad_n_pivots
08017f44 g     F .text	000000bc cosf
0803a05c g     O .bss	00000004 alt_irq_active
08020ba4 g     F .text	00000450 _fseeko_r
08000b80 g     F .text	000000e4 kann_unroll
08032400 g     F .text	00000148 alt_ro_zipfs_seek
080000ec g     F .exceptions	000000e0 alt_irq_handler
08036c9c g     O .rwdata	00000028 alt_dev_null
0802375c g     F .text	00000074 _strdup_r
08002534 g     F .text	000000f0 kann_layer_layernorm2
0802fe80 g     F .text	000000a8 alt_set_flash_algorithm_func
08011fc8 g     F .text	00000208 kad_op_select
08033a4c g     F .text	00000054 alt_dcache_flush_all
0802a368 g     F .text	00000074 __hi0bits
080334d8 g     F .text	000000d4 alt_up_pixel_buffer_dma_draw_rectangle
0801f04c g     F .text	0000008c .hidden __fixdfsi
0801f5b8 g     F .text	00000024 calloc
080001cc g       *ABS*	00000000 stext
080075bc g     F .text	00000610 kad_compile_array
08019fe8 g     F .text	000002d8 __kernel_cosf
0802dbbc g     F .text	00000100 __mcount_record
0802f9a8 g     F .text	00000050 alt_write_flash_command_8bit_device_8bit_mode
08024fc4 g     F .text	00000024 strtod
080380fc g       *ABS*	00000000 __ram_rwdata_end
08016b94 g     F .text	00000394 kad_print_graph
0800eb90 g     F .text	0000070c kad_op_ce_bin
080380c8 g     O .rwdata	00000008 alt_dev_list
08020324 g     F .text	00000050 _fputc_r
0802eb1c g     F .text	00000104 write
080227ec g     F .text	000000ac _putc_r
0803363c g     F .text	00000254 alt_up_pixel_buffer_dma_draw_line
0801bfc0 g     F .text	000000c4 .hidden __gtsf2
080039f0 g     F .text	0000023c kann_RMSprop
080361d8 g       *ABS*	00000000 __ram_rodata_end
0802da58 g     F .text	000000bc fstat
080202f4 g     F .text	00000030 fprintf
0802df44 g     F .text	0000013c kill
0801df28 g     F .text	000000f8 .hidden __ledf2
08030d04 g     F .text	000000e4 alt_check_primary_table
08014a70 g     F .text	000014c0 kad_op_conv1d
0802a6e4 g     F .text	0000014c __pow5mult
08016424 g     F .text	00000744 kad_op_avg1d
0803a038 g     O .bss	00000004 __nlocale_changed
0802b2b4 g     F .text	00001468 ___vfiprintf_internal_r
0801b5c0 g     F .text	00000060 .hidden __umodsi3
0802f404 g     F .text	00000070 alt_flash_cfi_read
0802fbe8 g     F .text	00000044 alt_write_native_8bit
0803a2a0 g       *ABS*	00000000 end
0802f9f8 g     F .text	00000084 alt_write_flash_command_16bit_device_8bit_mode
08020ff4 g     F .text	00000028 fseeko
08032630 g     F .text	0000008c alt_up_char_buffer_init
08020b7c g     F .text	00000028 fseek
0802ffb4 g     F .text	000005d4 alt_read_cfi_table
08030f7c g     F .text	000000cc altera_avalon_jtag_uart_init
080351f8 g       *ABS*	00000000 __CTOR_LIST__
10000000 g       *ABS*	00000000 __alt_stack_pointer
08031958 g     F .text	00000088 alt_avalon_timer_sc_init
0801f490 g     F .text	00000070 .hidden __clzsi2
08010dbc g     F .text	000001e8 kad_op_relu
08001c14 g     F .text	0000010c kann_save_fp
080316a4 g     F .text	00000230 altera_avalon_jtag_uart_write
0802f01c g     F .text	0000009c alt_flash_cfi_init
0800e4f4 g     F .text	00000368 kad_op_reverse
080200a0 g     F .text	00000010 __sfp_lock_acquire
080351f8 g       *ABS*	00000000 etext
08022224 g     F .text	000000f0 memchr
08025118 g     F .text	00002204 ___vfprintf_internal_r
08020850 g     F .text	0000031c _free_r
08029f3c g     F .text	0000001c __locale_mb_cur_max
080277a8 g     F .text	0000018c __call_exitprocs
08002f84 g     F .text	0000004c kann_layer_dense
0803a034 g     O .bss	00000004 __mlocale_changed
080380b0 g     O .rwdata	00000004 __malloc_sbrk_base
080001cc g     F .text	0000004c _start
0803a054 g     O .bss	00000004 _alt_tick_rate
08005e8c g     F .text	00000040 kad_relu
08009bfc g     F .text	000004a0 kad_unroll
0802a830 g     F .text	00000154 __lshift
08005dcc g     F .text	00000040 kad_square
0803a058 g     O .bss	00000004 _alt_nticks
0802340c g     F .text	00000024 signal
0802e6f0 g     F .text	00000108 read
0802eca4 g     F .text	00000338 alt_sys_init
0801cad8 g     F .text	00000130 .hidden __floatsisf
08005e0c g     F .text	00000040 kad_sigm
08011ca0 g     F .text	00000328 kad_op_stack
080226fc g     F .text	0000006c _open_r
080350d4 g     F .text	00000124 __register_exitproc
08023874 g     F .text	000000dc strncmp
080080d0 g     F .text	00000154 kad_eval_marked
08008e80 g     F .text	000002b4 kad_clone
08036e44 g     O .rwdata	00000024 alt_gmon_data
0802f910 g     F .text	0000004c alt_read_query_entry_16bit
0802a4e0 g     F .text	00000204 __multiply
0802e394 g       .text	00000000 mcount
0803130c g     F .text	00000074 altera_avalon_jtag_uart_close
080361d8 g       *ABS*	00000000 __ram_rwdata_start
080351f8 g       *ABS*	00000000 __ram_rodata_start
0803a060 g     O .bss	00000028 __malloc_current_mallinfo
0800c0fc g     F .text	0000013c kad_op_1minus
0801bf40 g     F .text	00000080 .hidden __eqsf2
0802fcb0 g     F .text	000001d0 alt_set_flash_width_func
0802ad7c g     F .text	00000158 __d2b
0800153c g     F .text	00000158 kann_rnn_start
0802296c g     F .text	00000024 realloc
08030de8 g     F .text	0000006c altera_avalon_jtag_uart_read_fd
08033f80 g     F .text	000000b0 alt_get_fd
08034ec8 g     F .text	00000164 alt_busy_sleep
08027748 g     F .text	00000060 _close_r
0800b634 g     F .text	000002cc kad_op_mul
08002698 g     F .text	000001c8 kann_layer_rnn2
08034548 g     F .text	0000021c alt_erase_block_amd
0803504c g     F .text	00000088 memcmp
08030ec0 g     F .text	0000005c altera_avalon_jtag_uart_close_fd
0803a2a0 g       *ABS*	00000000 __alt_stack_base
08030f1c g     F .text	00000060 altera_avalon_jtag_uart_ioctl_fd
08002d28 g     F .text	00000050 kann_new_scalar
080216ec g     F .text	000000d8 _fwrite_r
080022fc g     F .text	000000c0 kann_new_leaf2
080275e8 g     F .text	00000160 __swsetup_r
08030588 g     F .text	0000077c alt_read_cfi_width
0801d4c0 g     F .text	000008f4 .hidden __divdf3
0801ff3c g     F .text	00000124 __sfp
0802b004 g     F .text	00000084 __copybits
0803681c g     O .rwdata	00000408 __malloc_av_
08010fa4 g     F .text	000001e4 kad_op_sin
080200d0 g     F .text	00000010 __sinit_lock_release
0800b1e4 g     F .text	00000228 kad_op_add
0801e020 g     F .text	00000724 .hidden __muldf3
080234e4 g     F .text	00000060 __sread
080206e0 g     F .text	00000040 fread
08033d0c g     F .text	00000114 alt_find_file
08033ae8 g     F .text	000000b0 alt_dev_llist_insert
0802e334 g     F .text	00000030 __malloc_lock
080202c0 g     F .text	00000034 _fprintf_r
0802e868 g     F .text	000000b0 sbrk
0802373c g     F .text	00000020 strdup
0801b1f4 g     F .text	00000150 scalbnf
0801fa50 g     F .text	00000068 _fflush_r
0801f5dc g     F .text	000000d0 _calloc_r
08003118 g     F .text	000000b8 kann_layer_gru
080380f0 g     O .rwdata	00000008 alt_flash_dev_list
08005f0c g     F .text	00000040 kad_softmax
0802fad8 g     F .text	00000058 alt_write_flash_command_16bit_device_16bit_mode
0802029c g     F .text	00000024 fopen
0803a020 g       *ABS*	00000000 __bss_start
080225cc g     F .text	00000130 memset
08019e88 g     F .text	00000160 __ieee754_sqrtf
0801764c g     F .text	000008f8 main
0803a050 g     O .bss	00000004 alt_envp
0803a024 g     O .bss	00000004 __malloc_max_total_mem
08032b9c g     F .text	0000006c alt_up_pixel_buffer_dma_swap_buffers
080326bc g     F .text	00000048 alt_up_char_buffer_open_dev
08030e54 g     F .text	0000006c altera_avalon_jtag_uart_write_fd
08027558 g     F .text	00000024 __swbuf
08002d78 g     F .text	00000054 kann_new_weight
0801c084 g     F .text	000000e0 .hidden __ltsf2
080204a8 g     F .text	00000238 _fread_r
08014100 g     F .text	0000067c kad_op_max2d
08023648 g     F .text	00000014 __sclose
0801b014 g     F .text	00000014 matherr
10000000 g       *ABS*	00000000 __alt_heap_limit
0801f808 g     F .text	00000020 fclose
08005d4c g     F .text	00000040 kad_exp
0801f2dc g     F .text	000001b4 .hidden __truncdfsf2
08027b40 g     F .text	00001694 _dtoa_r
08021a0c g     F .text	00000818 _malloc_r
0802cbac g     F .text	0000003c __ascii_wctomb
080380d4 g     O .rwdata	00000004 alt_errno
08020128 g     F .text	0000002c _fiprintf_r
0802fb8c g     F .text	0000005c alt_write_flash_command_32bit_device_32bit_mode
08023430 g     F .text	0000001c _init_signal
0800acd8 g     F .text	00000088 kad_rng
0802154c g     F .text	000000d0 _fwalk
0801faf4 g     F .text	00000150 _fgets_r
0802f474 g     F .text	00000168 alt_write_value_to_flash
0802fc2c g     F .text	00000044 alt_write_native_16bit
08022898 g     F .text	000000d4 putc
0801b440 g     F .text	00000090 .hidden __divsi3
0801708c g     F .text	000005c0 kad_check_grad
0803230c g     F .text	000000f4 alt_ro_zipfs_read
08020720 g     F .text	00000130 _malloc_trim_r
08006bdc g     F .text	000000e0 kad_concat_array
080351f8 g       *ABS*	00000000 __CTOR_END__
0801c164 g     F .text	00000408 .hidden __mulsf3
080325cc g     F .text	00000064 alt_ro_zipfs_check_valid
0802365c g     F .text	000000e0 strcmp
080351f8 g       *ABS*	00000000 __flash_rodata_start
080351f8 g       *ABS*	00000000 __DTOR_LIST__
08001b38 g     F .text	00000054 kann_cost
080024b0 g     F .text	00000084 kann_layer_dropout2
0801ddb4 g     F .text	00000090 .hidden __nedf2
08032548 g     F .text	00000084 alt_ro_zipfs_fstat
0802ec60 g     F .text	00000044 alt_irq_init
0802e7f8 g     F .text	00000070 alt_release_fd
0800aea4 g     F .text	000002b0 kad_drand_normal
0801b344 g     F .text	00000024 copysignf
08005e4c g     F .text	00000040 kad_tanh
08035c8c g     O .rodata	00000100 .hidden __clz_tab
0803a030 g     O .bss	00000004 _PathLocale
10000000 g       *ABS*	00000000 __alt_mem_generic_tristate_controller_0
08024fe8 g     F .text	0000010c strtof
0803502c g     F .text	00000020 atexit
0801bfc0 g     F .text	000000c4 .hidden __gesf2
0802757c g     F .text	0000006c _write_r
08010b04 g     F .text	000002b8 kad_op_tanh
08003e24 g     F .text	00000a98 kann_train_fnn1
08006738 g     F .text	00000048 kad_avg
08029f9c g     F .text	00000024 setlocale
0800c5d0 g     F .text	000004f8 kad_op_reduce_sum
08004cb0 g     F .text	00000700 kann_data_read
08001d20 g     F .text	0000008c kann_save
080036c8 g     F .text	00000198 kann_layer_cost
0800321c g     F .text	000003b8 kann_layer_lstm
08005d0c g     F .text	00000040 kad_log
0800301c g     F .text	00000044 kann_layer_layernorm
080380ac g     O .rwdata	00000004 _impure_ptr
08007bcc g     F .text	000000cc kad_compile
0803a048 g     O .bss	00000004 alt_argc
080069a4 g     F .text	00000048 kad_reduce_sum
0801f828 g     F .text	00000228 __sflush_r
0800a3bc g     F .text	000003bc kad_sgemm_simple
08033c04 g     F .text	0000006c _do_dtors
08029f70 g     F .text	00000014 __locale_cjk_lang
08005c7c g     F .text	00000048 kad_ce_bin_neg
080187bc g     F .text	00000728 __ieee754_log
0800d728 g     F .text	0000040c kad_op_slice
08005b14 g     F .text	00000048 kad_mul
08020b6c g     F .text	00000010 _fseek_r
080009e8 g     F .text	000000c8 kann_clone
0800cac8 g     F .text	000005a0 kad_op_reduce_mean
08005ecc g     F .text	00000040 kad_1minus
0800640c g     F .text	000000ec kad_conv1d
08022f28 g     F .text	000001e0 __srefill_r
08000020 g       .exceptions	00000000 alt_irq_entry
0802abf8 g     F .text	0000006c __ulp
08020104 g     F .text	00000024 __fp_unlock_all
08020374 g     F .text	00000068 fputc
08001694 g     F .text	00000148 kann_rnn_end
0800faac g     F .text	00000558 kad_op_ce_multi
08016b68 g     F .text	0000002c kad_trap_fe
080380c0 g     O .rwdata	00000008 alt_fs_list
0800b40c g     F .text	00000228 kad_op_sub
08018000 g     F .text	000000bc sinf
08011188 g     F .text	000004e4 kad_op_softmax
0802fa7c g     F .text	0000005c alt_write_flash_command_32bit_device_8bit_mode
0801b028 g     F .text	00000018 nan
080065b4 g     F .text	000000bc kad_avg1d
08002c68 g     F .text	000000c0 kann_new_leaf
08001f70 g     F .text	000000a8 kann_load
08000020 g       *ABS*	00000000 __ram_exceptions_start
08029fc0 g     F .text	00000018 localeconv
08006f34 g     F .text	000000d4 kad_switch
08018ee4 g     F .text	00000294 __ieee754_sqrt
08005810 g     F .text	0000006c kad_var
08000000 g       *ABS*	00000000 __alt_mem_new_sdram_controller_0
08002ec4 g     F .text	00000060 kann_new_weight_conv1d
08034070 g     F .text	0000005c alt_ic_isr_register
080217c4 g     F .text	00000040 fwrite
0800e85c g     F .text	00000334 kad_op_mse
080380fc g       *ABS*	00000000 _edata
08003060 g     F .text	000000b8 kann_layer_rnn
0803a2a0 g       *ABS*	00000000 _end
08033e20 g     F .text	00000074 alt_flash_open_dev
08002e18 g     F .text	00000040 kann_new_bias
08011940 g     F .text	00000360 kad_op_max
08006174 g     F .text	0000011c kad_conv2d
0802c80c g     F .text	00000170 __fputwc
080001cc g       *ABS*	00000000 __ram_exceptions_end
08031380 g     F .text	000000fc altera_avalon_jtag_uart_ioctl
080203dc g     F .text	000000a8 _fputs_r
08008bc8 g     F .text	0000014c kad_load
0800d068 g     F .text	0000041c kad_op_dropout
08005a84 g     F .text	00000048 kad_add
0800f29c g     F .text	00000810 kad_op_ce_bin_neg
08001dac g     F .text	000001c4 kann_load_fp
08034160 g     F .text	00000098 alt_ic_irq_disable
08002e58 g     F .text	0000006c kann_new_weight_conv2d
08023558 g     F .text	00000088 __swrite
080380b4 g     O .rwdata	00000004 __malloc_trim_threshold
080344a4 g     F .text	00000030 altera_nios2_qsys_irq_init
08029f58 g     F .text	00000018 __locale_msgcharset
080006f4 g     F .text	000002f4 kann_new
0801f6c8 g     F .text	00000044 exit
08020154 g     F .text	00000048 fiprintf
0800c238 g     F .text	000001cc kad_op_exp
080250f4 g     F .text	00000024 _vfiprintf_r
0802161c g     F .text	000000d0 _fwalk_reent
0802a9f0 g     F .text	00000208 __mdiff
08033e94 g     F .text	00000060 alt_flash_close_dev
0801b4d0 g     F .text	00000080 .hidden __modsi3
10000000 g       *ABS*	00000000 __alt_data_end
08000020 g     F .exceptions	00000000 alt_exception
080200b0 g     F .text	00000010 __sfp_lock_release
08001b8c g     F .text	00000044 kann_class_error
08000f58 g     F .text	0000019c kann_feed_bind
080053b0 g     F .text	00000158 kann_data_free
08005f4c g     F .text	00000040 kad_stdnorm
0801fc6c g     F .text	00000074 fileno
0801b3d4 g     F .text	0000006c .hidden __fixunssfsi
0802019c g     F .text	00000100 _fopen_r
0802d9a8 g     F .text	00000068 _exit
08007d80 g     F .text	000000e8 kad_size_var
0801a2c0 g     F .text	00000b10 __kernel_rem_pio2f
080183a0 g     F .text	00000178 expf
08033890 g     F .text	00000138 alt_alarm_start
08005d8c g     F .text	00000040 kad_sin
08006ea0 g     F .text	00000094 kad_reverse
0801b368 g     F .text	0000006c .hidden __muldi3
0803a0a0 g     O .bss	00000100 __mcount_fn_head
08021804 g     F .text	000001c8 __smakebuf_r
0802fc70 g     F .text	00000040 alt_write_native_32bit
080237d0 g     F .text	000000a4 strlen
08023168 g     F .text	00000078 _init_signal_r
0802e548 g     F .text	00000160 open
0801de44 g     F .text	000000e4 .hidden __gedf2
08029398 g     F .text	0000083c __gethex
08001b00 g     F .text	00000038 kann_mt
0802f36c g     F .text	00000098 alt_flash_cfi_get_info
0801f598 g     F .text	00000020 __assert
0800db34 g     F .text	000005cc kad_op_concat
080380bc g     O .rwdata	00000004 __wctomb
08000cf8 g     F .text	0000007c kann_delete
0802b290 g     F .text	00000024 __sprint_r
08034030 g     F .text	00000040 alt_icache_flush_all
0801b080 g     F .text	00000110 floorf
080108b4 g     F .text	00000250 kad_op_sigm
08020484 g     F .text	00000024 fputs
080380f8 g     O .rwdata	00000004 alt_priority_mask
08007e68 g     F .text	000000e8 kad_size_const
08006810 g     F .text	000000fc kad_select
080340cc g     F .text	00000094 alt_ic_irq_enable
0802731c g     F .text	00000028 __vfprintf_internal
0802cbe8 g     F .text	00000068 _wctomb_r
08002018 g     F .text	000002e4 kann_new_leaf_array
0801e744 g     F .text	00000908 .hidden __subdf3
0802a3dc g     F .text	000000bc __lo0bits
0802e394 g       .text	00000000 _mcount
0800a258 g     F .text	0000010c kad_vec_mul_sum
080380e8 g     O .rwdata	00000008 alt_alarm_list
08033b98 g     F .text	0000006c _do_ctors
0802344c g     F .text	00000020 __sigtramp
08003860 g     F .text	00000190 kann_shuffle
0802cae0 g     F .text	000000cc wcrtomb
0802d894 g     F .text	000000dc close
0801b620 g     F .text	000004d4 .hidden __addsf3
080344d4 g     F .text	00000074 alt_program_amd
0802e0f4 g     F .text	00000090 alt_load
08000e50 g     F .text	00000108 kann_find
0802c9ac g     F .text	0000008c fputwc
080233ec g     F .text	00000020 raise
080219ec g     F .text	00000020 free
080200c0 g     F .text	00000010 __sinit_lock_acquire
0802a12c g     F .text	0000012c __multadd
0802a0f8 g     F .text	00000034 _Bfree
08031c9c g     F .text	00000140 check_directory_header



Disassembly of section .entry:

08000000 <__reset>:
 */

#if NIOS2_ICACHE_SIZE > 0 && defined(ALT_ALLOW_CODE_AT_RESET) && !defined(ALT_SIM_OPTIMIZE)
    /* Assume the instruction cache size is always a power of two. */
#if NIOS2_ICACHE_SIZE > 0x8000
    movhi r2, %hi(NIOS2_ICACHE_SIZE)
 8000000:	00800074 	movhi	r2,1
#else
    movui r2, NIOS2_ICACHE_SIZE
#endif

0:
    initi r2
 8000004:	1001483a 	initi	r2
    addi r2, r2, -NIOS2_ICACHE_LINE_SIZE
 8000008:	10bff804 	addi	r2,r2,-32
    bgt r2, zero, 0b
 800000c:	00bffd16 	blt	zero,r2,8000004 <__reset+0x4>
 * Jump to the _start entry point in the .text section if reset code
 * is allowed or if optimizing for RTL simulation.
 */
#if defined(ALT_ALLOW_CODE_AT_RESET) || defined(ALT_SIM_OPTIMIZE)
    /* Jump to the _start entry point in the .text section. */
    movhi r1, %hi(_start)
 8000010:	00420034 	movhi	at,2048
    ori r1, r1, %lo(_start)
 8000014:	08407314 	ori	at,at,460
    jmp r1
 8000018:	0800683a 	jmp	at
 800001c:	00000000 	call	0 <__alt_mem_new_sdram_controller_0-0x8000000>

Disassembly of section .exceptions:

08000020 <alt_exception>:

#else /* ALT_EXCEPTION_STACK disabled */
        /* 
         * Reserve space on normal stack for registers about to be pushed.
         */
        addi  sp, sp, -76
 8000020:	deffed04 	addi	sp,sp,-76
         * documentation for details).
         *
         * Leave a gap in the stack frame at 4(sp) for the muldiv handler to
         * store zero into.
         */
        stw   ra,  0(sp)
 8000024:	dfc00015 	stw	ra,0(sp)
        stw   r1,   8(sp)
 8000028:	d8400215 	stw	at,8(sp)
        stw   r2,  12(sp)
 800002c:	d8800315 	stw	r2,12(sp)
        stw   r3,  16(sp)
 8000030:	d8c00415 	stw	r3,16(sp)
        stw   r4,  20(sp)
 8000034:	d9000515 	stw	r4,20(sp)
        stw   r5,  24(sp)
 8000038:	d9400615 	stw	r5,24(sp)
        stw   r6,  28(sp)
 800003c:	d9800715 	stw	r6,28(sp)
        stw   r7,  32(sp)
 8000040:	d9c00815 	stw	r7,32(sp)
        rdctl r5, estatus   /* Read early to avoid usage stall */
 8000044:	000b307a 	rdctl	r5,estatus
        stw   r8,  36(sp)
 8000048:	da000915 	stw	r8,36(sp)
        stw   r9,  40(sp)
 800004c:	da400a15 	stw	r9,40(sp)
        stw   r10, 44(sp)
 8000050:	da800b15 	stw	r10,44(sp)
        stw   r11, 48(sp)
 8000054:	dac00c15 	stw	r11,48(sp)
        stw   r12, 52(sp)
 8000058:	db000d15 	stw	r12,52(sp)
        stw   r13, 56(sp)
 800005c:	db400e15 	stw	r13,56(sp)
        stw   r14, 60(sp)
 8000060:	db800f15 	stw	r14,60(sp)
        stw   r15, 64(sp)
 8000064:	dbc01015 	stw	r15,64(sp)
        /*
         * ea-4 contains the address of the instruction being executed
         * when the exception occured. For interrupt exceptions, we will
         * will be re-issue the isntruction. Store it in 72(sp)
         */
        stw   r5,  68(sp)  /* estatus */
 8000068:	d9401115 	stw	r5,68(sp)
        addi  r15, ea, -4  /* instruction that caused exception */
 800006c:	ebffff04 	addi	r15,ea,-4
        stw   r15,  72(sp)
 8000070:	dbc01215 	stw	r15,72(sp)
#else
        /*
         * Test to see if the exception was a software exception or caused 
         * by an external interrupt, and vector accordingly.
         */
        rdctl r4, ipending
 8000074:	0009313a 	rdctl	r4,ipending
        andi  r2, r5, 1
 8000078:	2880004c 	andi	r2,r5,1
        beq   r2, zero, .Lnot_irq
 800007c:	10000326 	beq	r2,zero,800008c <alt_exception+0x6c>
        beq   r4, zero, .Lnot_irq
 8000080:	20000226 	beq	r4,zero,800008c <alt_exception+0x6c>
        /*
         * Now that all necessary registers have been preserved, call 
         * alt_irq_handler() to process the interrupts.
         */

        call alt_irq_handler
 8000084:	80000ec0 	call	80000ec <alt_irq_handler>

        .section .exceptions.irqreturn, "xa"

        br    .Lexception_exit
 8000088:	00000306 	br	8000098 <alt_exception_unknown+0x4>
         * upon completion, so we write ea (address of instruction *after*
         * the one where the exception occured) into 72(sp). The actual
         * instruction that caused the exception is written in r2, which these
         * handlers will utilize.
         */
        stw   ea,  72(sp)  /* Don't re-issue */
 800008c:	df401215 	stw	ea,72(sp)
        ldw   r2, -4(ea)   /* Instruction that caused exception */
 8000090:	e8bfff17 	ldw	r2,-4(ea)

08000094 <alt_exception_unknown>:
#ifdef NIOS2_HAS_DEBUG_STUB
       /*
        *  Either tell the user now (if there is a debugger attached) or go into
        *  the debug monitor which will loop until a debugger is attached.
        */
        break
 8000094:	003da03a 	break	0
        /* 
         * Restore the saved registers, so that all general purpose registers 
         * have been restored to their state at the time the interrupt occured.
         */

        ldw   r5,  68(sp)
 8000098:	d9401117 	ldw	r5,68(sp)
        ldw   ea,  72(sp)  /* This becomes the PC once eret is executed */
 800009c:	df401217 	ldw	ea,72(sp)
        ldw   ra,   0(sp)
 80000a0:	dfc00017 	ldw	ra,0(sp)

        wrctl estatus, r5
 80000a4:	2801707a 	wrctl	estatus,r5

        ldw   r1,   8(sp)
 80000a8:	d8400217 	ldw	at,8(sp)
        ldw   r2,  12(sp)
 80000ac:	d8800317 	ldw	r2,12(sp)
        ldw   r3,  16(sp)
 80000b0:	d8c00417 	ldw	r3,16(sp)
        ldw   r4,  20(sp)
 80000b4:	d9000517 	ldw	r4,20(sp)
        ldw   r5,  24(sp)
 80000b8:	d9400617 	ldw	r5,24(sp)
        ldw   r6,  28(sp)
 80000bc:	d9800717 	ldw	r6,28(sp)
        ldw   r7,  32(sp)
 80000c0:	d9c00817 	ldw	r7,32(sp)

#if defined(ALT_EXCEPTION_STACK) && defined(ALT_STACK_CHECK)
        ldw   et, %gprel(alt_exception_old_stack_limit)(gp)
#endif

        ldw   r8,  36(sp)
 80000c4:	da000917 	ldw	r8,36(sp)
        ldw   r9,  40(sp)
 80000c8:	da400a17 	ldw	r9,40(sp)
        ldw   r10, 44(sp)
 80000cc:	da800b17 	ldw	r10,44(sp)
        ldw   r11, 48(sp)
 80000d0:	dac00c17 	ldw	r11,48(sp)
        ldw   r12, 52(sp)
 80000d4:	db000d17 	ldw	r12,52(sp)
        ldw   r13, 56(sp)
 80000d8:	db400e17 	ldw	r13,56(sp)
        ldw   r14, 60(sp)
 80000dc:	db800f17 	ldw	r14,60(sp)
        ldw   r15, 64(sp)
 80000e0:	dbc01017 	ldw	r15,64(sp)
        stw   et, %gprel(alt_stack_limit_value)(gp)
        stw   zero, %gprel(alt_exception_old_stack_limit)(gp)
#endif /* ALT_STACK_CHECK */
        ldw   sp,  76(sp)
#else /* ALT_EXCEPTION_STACK disabled */
        addi  sp, sp, 76
 80000e4:	dec01304 	addi	sp,sp,76

        /*
         * Return to the interrupted instruction.
         */

        eret
 80000e8:	ef80083a 	eret

080000ec <alt_irq_handler>:
 * instruction is present if the macro ALT_CI_INTERRUPT_VECTOR defined.
 */

void alt_irq_handler (void) __attribute__ ((section (".exceptions")));
void alt_irq_handler (void)
{
 80000ec:	f811883a 	mov	r8,ra
 80000f0:	802e3940 	call	802e394 <_mcount>
 80000f4:	403f883a 	mov	ra,r8
 80000f8:	defff904 	addi	sp,sp,-28
 80000fc:	dfc00615 	stw	ra,24(sp)
 8000100:	df000515 	stw	fp,20(sp)
 8000104:	df000504 	addi	fp,sp,20
  
  /*
   * Notify the operating system that we are at interrupt level.
   */ 
  
  ALT_OS_INT_ENTER();
 8000108:	0001883a 	nop
#ifndef NIOS2_EIC_PRESENT
static ALT_INLINE alt_u32 ALT_ALWAYS_INLINE alt_irq_pending (void)
{
  alt_u32 active;

  NIOS2_READ_IPENDING (active);
 800010c:	0005313a 	rdctl	r2,ipending
 8000110:	e0bffe15 	stw	r2,-8(fp)

  return active;
 8000114:	e0bffe17 	ldw	r2,-8(fp)
   * Consider the case where the high priority interupt is asserted during
   * the interrupt entry sequence for a lower priority interrupt to see why
   * this is the case.
   */

  active = alt_irq_pending ();
 8000118:	e0bffb15 	stw	r2,-20(fp)

  do
  {
    i = 0;
 800011c:	e03ffd15 	stw	zero,-12(fp)
    mask = 1;
 8000120:	00800044 	movi	r2,1
 8000124:	e0bffc15 	stw	r2,-16(fp)
     * called to clear the interrupt condition.
     */

    do
    {
      if (active & mask)
 8000128:	e0fffb17 	ldw	r3,-20(fp)
 800012c:	e0bffc17 	ldw	r2,-16(fp)
 8000130:	1884703a 	and	r2,r3,r2
 8000134:	10001426 	beq	r2,zero,8000188 <alt_irq_handler+0x9c>
      { 
#ifdef ALT_ENHANCED_INTERRUPT_API_PRESENT
        alt_irq[i].handler(alt_irq[i].context); 
 8000138:	00820134 	movhi	r2,2052
 800013c:	10a86804 	addi	r2,r2,-24160
 8000140:	e0fffd17 	ldw	r3,-12(fp)
 8000144:	180690fa 	slli	r3,r3,3
 8000148:	10c5883a 	add	r2,r2,r3
 800014c:	10c00017 	ldw	r3,0(r2)
 8000150:	00820134 	movhi	r2,2052
 8000154:	10a86804 	addi	r2,r2,-24160
 8000158:	e13ffd17 	ldw	r4,-12(fp)
 800015c:	200890fa 	slli	r4,r4,3
 8000160:	1105883a 	add	r2,r2,r4
 8000164:	10800104 	addi	r2,r2,4
 8000168:	10800017 	ldw	r2,0(r2)
 800016c:	1009883a 	mov	r4,r2
 8000170:	183ee83a 	callr	r3
#else
        alt_irq[i].handler(alt_irq[i].context, i); 
#endif
        break;
 8000174:	0001883a 	nop
#ifndef NIOS2_EIC_PRESENT
static ALT_INLINE alt_u32 ALT_ALWAYS_INLINE alt_irq_pending (void)
{
  alt_u32 active;

  NIOS2_READ_IPENDING (active);
 8000178:	0005313a 	rdctl	r2,ipending
 800017c:	e0bfff15 	stw	r2,-4(fp)

  return active;
 8000180:	e0bfff17 	ldw	r2,-4(fp)
 8000184:	00000706 	br	80001a4 <alt_irq_handler+0xb8>
      }
      mask <<= 1;
 8000188:	e0bffc17 	ldw	r2,-16(fp)
 800018c:	1085883a 	add	r2,r2,r2
 8000190:	e0bffc15 	stw	r2,-16(fp)
      i++;
 8000194:	e0bffd17 	ldw	r2,-12(fp)
 8000198:	10800044 	addi	r2,r2,1
 800019c:	e0bffd15 	stw	r2,-12(fp)

    } while (1);
 80001a0:	003fe106 	br	8000128 <alt_irq_handler+0x3c>

    active = alt_irq_pending ();
 80001a4:	e0bffb15 	stw	r2,-20(fp)
    
  } while (active);
 80001a8:	e0bffb17 	ldw	r2,-20(fp)
 80001ac:	103fdb1e 	bne	r2,zero,800011c <alt_irq_handler+0x30>

  /*
   * Notify the operating system that interrupt processing is complete.
   */ 

  ALT_OS_INT_EXIT();
 80001b0:	0001883a 	nop
}
 80001b4:	0001883a 	nop
 80001b8:	e037883a 	mov	sp,fp
 80001bc:	dfc00117 	ldw	ra,4(sp)
 80001c0:	df000017 	ldw	fp,0(sp)
 80001c4:	dec00204 	addi	sp,sp,8
 80001c8:	f800283a 	ret

Disassembly of section .text:

080001cc <_start>:

#if NIOS2_DCACHE_SIZE > 0 && (!defined(ALT_SIM_OPTIMIZE) || defined(NIOS2_ECC_PRESENT))

    /* Assume the data cache size is always a power of two. */
#if NIOS2_DCACHE_SIZE > 0x8000
    movhi r2, %hi(NIOS2_DCACHE_SIZE)
 80001cc:	00800074 	movhi	r2,1
#else
    movui r2, NIOS2_DCACHE_SIZE
#endif

0:
    initd 0(r2)
 80001d0:	10000033 	initd	0(r2)
#ifdef NIOS2_ECC_PRESENT
    addi r2, r2, -4
#else
    addi r2, r2, -NIOS2_DCACHE_LINE_SIZE
 80001d4:	10bff804 	addi	r2,r2,-32
#endif
    bgt r2, zero, 0b
 80001d8:	00bffd16 	blt	zero,r2,80001d0 <_start+0x4>

    /*
     * Now that the caches are initialized, set up the stack pointer and global pointer.
     * The values provided by the linker are assumed to be correctly aligned.
     */
    movhi sp, %hi(__alt_stack_pointer)
 80001dc:	06c40034 	movhi	sp,4096
    ori sp, sp, %lo(__alt_stack_pointer)
 80001e0:	dec00014 	ori	sp,sp,0
    movhi gp, %hi(_gp)
 80001e4:	06820134 	movhi	gp,2052
    ori gp, gp, %lo(_gp)
 80001e8:	d6801c14 	ori	gp,gp,112
 */
#ifndef ALT_SIM_OPTIMIZE
    /* Log that the BSS is about to be cleared. */
    ALT_LOG_PUTS(alt_log_msg_bss)

    movhi r2, %hi(__bss_start)
 80001ec:	008200f4 	movhi	r2,2051
    ori r2, r2, %lo(__bss_start)
 80001f0:	10a80814 	ori	r2,r2,40992

    movhi r3, %hi(__bss_end)
 80001f4:	00c200f4 	movhi	r3,2051
    ori r3, r3, %lo(__bss_end)
 80001f8:	18e8a814 	ori	r3,r3,41632

    beq r2, r3, 1f
 80001fc:	10c00326 	beq	r2,r3,800020c <_start+0x40>

0:
    stw zero, (r2)
 8000200:	10000015 	stw	zero,0(r2)
    addi r2, r2, 4
 8000204:	10800104 	addi	r2,r2,4
    bltu r2, r3, 0b
 8000208:	10fffd36 	bltu	r2,r3,8000200 <_start+0x34>
     * section aren't defined until alt_load() has been called).
     */
    mov   et, zero
#endif

    call alt_load
 800020c:	802e0f40 	call	802e0f4 <alt_load>

    /* Log that alt_main is about to be called. */
    ALT_LOG_PUTS(alt_log_msg_alt_main)

    /* Call the C entry point. It should never return. */
    call alt_main
 8000210:	802e2ac0 	call	802e2ac <alt_main>

08000214 <alt_after_alt_main>:

    /* Wait in infinite loop in case alt_main does return. */
alt_after_alt_main:
    br alt_after_alt_main
 8000214:	003fff06 	br	8000214 <alt_after_alt_main>

08000218 <kad_len>:
typedef int (*kad_op_f)(kad_node_t*, int);
extern kad_op_f kad_op_list[KAD_MAX_OP];
extern char *kad_op_name[KAD_MAX_OP];

static inline int kad_len(const kad_node_t *p) /* calculate the size of p->x */
{
 8000218:	f811883a 	mov	r8,ra
 800021c:	802e3940 	call	802e394 <_mcount>
 8000220:	403f883a 	mov	ra,r8
 8000224:	defffc04 	addi	sp,sp,-16
 8000228:	df000315 	stw	fp,12(sp)
 800022c:	df000304 	addi	fp,sp,12
 8000230:	e13fff15 	stw	r4,-4(fp)
	int n = 1, i;
 8000234:	00800044 	movi	r2,1
 8000238:	e0bffd15 	stw	r2,-12(fp)
	for (i = 0; i < p->n_d; ++i) n *= p->d[i];
 800023c:	e03ffe15 	stw	zero,-8(fp)
 8000240:	00000d06 	br	8000278 <kad_len+0x60>
 8000244:	e0ffff17 	ldw	r3,-4(fp)
 8000248:	e0bffe17 	ldw	r2,-8(fp)
 800024c:	10800104 	addi	r2,r2,4
 8000250:	1085883a 	add	r2,r2,r2
 8000254:	1085883a 	add	r2,r2,r2
 8000258:	1885883a 	add	r2,r3,r2
 800025c:	10800017 	ldw	r2,0(r2)
 8000260:	e0fffd17 	ldw	r3,-12(fp)
 8000264:	1885383a 	mul	r2,r3,r2
 8000268:	e0bffd15 	stw	r2,-12(fp)
 800026c:	e0bffe17 	ldw	r2,-8(fp)
 8000270:	10800044 	addi	r2,r2,1
 8000274:	e0bffe15 	stw	r2,-8(fp)
 8000278:	e0bfff17 	ldw	r2,-4(fp)
 800027c:	10800003 	ldbu	r2,0(r2)
 8000280:	10803fcc 	andi	r2,r2,255
 8000284:	e0fffe17 	ldw	r3,-8(fp)
 8000288:	18bfee16 	blt	r3,r2,8000244 <kad_len+0x2c>
	return n;
 800028c:	e0bffd17 	ldw	r2,-12(fp)
}
 8000290:	e037883a 	mov	sp,fp
 8000294:	df000017 	ldw	fp,0(sp)
 8000298:	dec00104 	addi	sp,sp,4
 800029c:	f800283a 	ret

080002a0 <kad_ext_collate>:
/******************************************
 *** @@BASIC: fundamental KANN routines ***
 ******************************************/

static void kad_ext_collate(int n, kad_node_t **a, float **_x, float **_g, float **_c)
{
 80002a0:	f811883a 	mov	r8,ra
 80002a4:	802e3940 	call	802e394 <_mcount>
 80002a8:	403f883a 	mov	ra,r8
 80002ac:	defff004 	addi	sp,sp,-64
 80002b0:	dfc00f15 	stw	ra,60(sp)
 80002b4:	df000e15 	stw	fp,56(sp)
 80002b8:	dc000d15 	stw	r16,52(sp)
 80002bc:	df000e04 	addi	fp,sp,56
 80002c0:	e13ffb15 	stw	r4,-20(fp)
 80002c4:	e17ffc15 	stw	r5,-16(fp)
 80002c8:	e1bffd15 	stw	r6,-12(fp)
 80002cc:	e1fffe15 	stw	r7,-8(fp)
	int i, j, k, l, n_var;
	float *x, *g, *c;
	n_var = kad_size_var(n, a);
 80002d0:	e17ffc17 	ldw	r5,-16(fp)
 80002d4:	e13ffb17 	ldw	r4,-20(fp)
 80002d8:	8007d800 	call	8007d80 <kad_size_var>
 80002dc:	e0bff515 	stw	r2,-44(fp)
	x = *_x = (float*)realloc(*_x, n_var * sizeof(float));
 80002e0:	e0bffd17 	ldw	r2,-12(fp)
 80002e4:	10c00017 	ldw	r3,0(r2)
 80002e8:	e0bff517 	ldw	r2,-44(fp)
 80002ec:	1085883a 	add	r2,r2,r2
 80002f0:	1085883a 	add	r2,r2,r2
 80002f4:	100b883a 	mov	r5,r2
 80002f8:	1809883a 	mov	r4,r3
 80002fc:	802296c0 	call	802296c <realloc>
 8000300:	1007883a 	mov	r3,r2
 8000304:	e0bffd17 	ldw	r2,-12(fp)
 8000308:	10c00015 	stw	r3,0(r2)
 800030c:	e0bffd17 	ldw	r2,-12(fp)
 8000310:	10800017 	ldw	r2,0(r2)
 8000314:	e0bff615 	stw	r2,-40(fp)
	g = *_g = (float*)realloc(*_g, n_var * sizeof(float));
 8000318:	e0bffe17 	ldw	r2,-8(fp)
 800031c:	10c00017 	ldw	r3,0(r2)
 8000320:	e0bff517 	ldw	r2,-44(fp)
 8000324:	1085883a 	add	r2,r2,r2
 8000328:	1085883a 	add	r2,r2,r2
 800032c:	100b883a 	mov	r5,r2
 8000330:	1809883a 	mov	r4,r3
 8000334:	802296c0 	call	802296c <realloc>
 8000338:	1007883a 	mov	r3,r2
 800033c:	e0bffe17 	ldw	r2,-8(fp)
 8000340:	10c00015 	stw	r3,0(r2)
 8000344:	e0bffe17 	ldw	r2,-8(fp)
 8000348:	10800017 	ldw	r2,0(r2)
 800034c:	e0bff715 	stw	r2,-36(fp)
	c = *_c = (float*)realloc(*_c, kad_size_const(n, a) * sizeof(float));
 8000350:	e0800217 	ldw	r2,8(fp)
 8000354:	14000017 	ldw	r16,0(r2)
 8000358:	e17ffc17 	ldw	r5,-16(fp)
 800035c:	e13ffb17 	ldw	r4,-20(fp)
 8000360:	8007e680 	call	8007e68 <kad_size_const>
 8000364:	1085883a 	add	r2,r2,r2
 8000368:	1085883a 	add	r2,r2,r2
 800036c:	100b883a 	mov	r5,r2
 8000370:	8009883a 	mov	r4,r16
 8000374:	802296c0 	call	802296c <realloc>
 8000378:	1007883a 	mov	r3,r2
 800037c:	e0800217 	ldw	r2,8(fp)
 8000380:	10c00015 	stw	r3,0(r2)
 8000384:	e0800217 	ldw	r2,8(fp)
 8000388:	10800017 	ldw	r2,0(r2)
 800038c:	e0bff815 	stw	r2,-32(fp)
	memset(g, 0, n_var * sizeof(float));
 8000390:	e0bff517 	ldw	r2,-44(fp)
 8000394:	1085883a 	add	r2,r2,r2
 8000398:	1085883a 	add	r2,r2,r2
 800039c:	100d883a 	mov	r6,r2
 80003a0:	000b883a 	mov	r5,zero
 80003a4:	e13ff717 	ldw	r4,-36(fp)
 80003a8:	80225cc0 	call	80225cc <memset>
	for (i = j = k = 0; i < n; ++i) {
 80003ac:	e03ff415 	stw	zero,-48(fp)
 80003b0:	e0bff417 	ldw	r2,-48(fp)
 80003b4:	e0bff315 	stw	r2,-52(fp)
 80003b8:	e0bff317 	ldw	r2,-52(fp)
 80003bc:	e0bff215 	stw	r2,-56(fp)
 80003c0:	00006806 	br	8000564 <kad_ext_collate+0x2c4>
		kad_node_t *v = a[i];
 80003c4:	e0bff217 	ldw	r2,-56(fp)
 80003c8:	1085883a 	add	r2,r2,r2
 80003cc:	1085883a 	add	r2,r2,r2
 80003d0:	1007883a 	mov	r3,r2
 80003d4:	e0bffc17 	ldw	r2,-16(fp)
 80003d8:	10c5883a 	add	r2,r2,r3
 80003dc:	10800017 	ldw	r2,0(r2)
 80003e0:	e0bff915 	stw	r2,-28(fp)
		if (kad_is_var(v)) {
 80003e4:	e0bff917 	ldw	r2,-28(fp)
 80003e8:	10800117 	ldw	r2,4(r2)
 80003ec:	1000301e 	bne	r2,zero,80004b0 <kad_ext_collate+0x210>
 80003f0:	e0bff917 	ldw	r2,-28(fp)
 80003f4:	10800043 	ldbu	r2,1(r2)
 80003f8:	10803fcc 	andi	r2,r2,255
 80003fc:	1080004c 	andi	r2,r2,1
 8000400:	10002b26 	beq	r2,zero,80004b0 <kad_ext_collate+0x210>
			l = kad_len(v);
 8000404:	e13ff917 	ldw	r4,-28(fp)
 8000408:	80002180 	call	8000218 <kad_len>
 800040c:	e0bffa15 	stw	r2,-24(fp)
			memcpy(&x[j], v->x, l * sizeof(float));
 8000410:	e0bff317 	ldw	r2,-52(fp)
 8000414:	1085883a 	add	r2,r2,r2
 8000418:	1085883a 	add	r2,r2,r2
 800041c:	1007883a 	mov	r3,r2
 8000420:	e0bff617 	ldw	r2,-40(fp)
 8000424:	10c7883a 	add	r3,r2,r3
 8000428:	e0bff917 	ldw	r2,-28(fp)
 800042c:	11000a17 	ldw	r4,40(r2)
 8000430:	e0bffa17 	ldw	r2,-24(fp)
 8000434:	1085883a 	add	r2,r2,r2
 8000438:	1085883a 	add	r2,r2,r2
 800043c:	100d883a 	mov	r6,r2
 8000440:	200b883a 	mov	r5,r4
 8000444:	1809883a 	mov	r4,r3
 8000448:	80223140 	call	8022314 <memcpy>
			free(v->x);
 800044c:	e0bff917 	ldw	r2,-28(fp)
 8000450:	10800a17 	ldw	r2,40(r2)
 8000454:	1009883a 	mov	r4,r2
 8000458:	80219ec0 	call	80219ec <free>
			v->x = &x[j];
 800045c:	e0bff317 	ldw	r2,-52(fp)
 8000460:	1085883a 	add	r2,r2,r2
 8000464:	1085883a 	add	r2,r2,r2
 8000468:	1007883a 	mov	r3,r2
 800046c:	e0bff617 	ldw	r2,-40(fp)
 8000470:	10c7883a 	add	r3,r2,r3
 8000474:	e0bff917 	ldw	r2,-28(fp)
 8000478:	10c00a15 	stw	r3,40(r2)
			v->g = &g[j];
 800047c:	e0bff317 	ldw	r2,-52(fp)
 8000480:	1085883a 	add	r2,r2,r2
 8000484:	1085883a 	add	r2,r2,r2
 8000488:	1007883a 	mov	r3,r2
 800048c:	e0bff717 	ldw	r2,-36(fp)
 8000490:	10c7883a 	add	r3,r2,r3
 8000494:	e0bff917 	ldw	r2,-28(fp)
 8000498:	10c00b15 	stw	r3,44(r2)
			j += l;
 800049c:	e0fff317 	ldw	r3,-52(fp)
 80004a0:	e0bffa17 	ldw	r2,-24(fp)
 80004a4:	1885883a 	add	r2,r3,r2
 80004a8:	e0bff315 	stw	r2,-52(fp)
 80004ac:	00002a06 	br	8000558 <kad_ext_collate+0x2b8>
		} else if (kad_is_const(v)) {
 80004b0:	e0bff917 	ldw	r2,-28(fp)
 80004b4:	10800117 	ldw	r2,4(r2)
 80004b8:	1000271e 	bne	r2,zero,8000558 <kad_ext_collate+0x2b8>
 80004bc:	e0bff917 	ldw	r2,-28(fp)
 80004c0:	10800043 	ldbu	r2,1(r2)
 80004c4:	10803fcc 	andi	r2,r2,255
 80004c8:	1080008c 	andi	r2,r2,2
 80004cc:	10002226 	beq	r2,zero,8000558 <kad_ext_collate+0x2b8>
			l = kad_len(v);
 80004d0:	e13ff917 	ldw	r4,-28(fp)
 80004d4:	80002180 	call	8000218 <kad_len>
 80004d8:	e0bffa15 	stw	r2,-24(fp)
			memcpy(&c[k], v->x, l * sizeof(float));
 80004dc:	e0bff417 	ldw	r2,-48(fp)
 80004e0:	1085883a 	add	r2,r2,r2
 80004e4:	1085883a 	add	r2,r2,r2
 80004e8:	1007883a 	mov	r3,r2
 80004ec:	e0bff817 	ldw	r2,-32(fp)
 80004f0:	10c7883a 	add	r3,r2,r3
 80004f4:	e0bff917 	ldw	r2,-28(fp)
 80004f8:	11000a17 	ldw	r4,40(r2)
 80004fc:	e0bffa17 	ldw	r2,-24(fp)
 8000500:	1085883a 	add	r2,r2,r2
 8000504:	1085883a 	add	r2,r2,r2
 8000508:	100d883a 	mov	r6,r2
 800050c:	200b883a 	mov	r5,r4
 8000510:	1809883a 	mov	r4,r3
 8000514:	80223140 	call	8022314 <memcpy>
			free(v->x);
 8000518:	e0bff917 	ldw	r2,-28(fp)
 800051c:	10800a17 	ldw	r2,40(r2)
 8000520:	1009883a 	mov	r4,r2
 8000524:	80219ec0 	call	80219ec <free>
			v->x = &c[k];
 8000528:	e0bff417 	ldw	r2,-48(fp)
 800052c:	1085883a 	add	r2,r2,r2
 8000530:	1085883a 	add	r2,r2,r2
 8000534:	1007883a 	mov	r3,r2
 8000538:	e0bff817 	ldw	r2,-32(fp)
 800053c:	10c7883a 	add	r3,r2,r3
 8000540:	e0bff917 	ldw	r2,-28(fp)
 8000544:	10c00a15 	stw	r3,40(r2)
			k += l;
 8000548:	e0fff417 	ldw	r3,-48(fp)
 800054c:	e0bffa17 	ldw	r2,-24(fp)
 8000550:	1885883a 	add	r2,r3,r2
 8000554:	e0bff415 	stw	r2,-48(fp)
	n_var = kad_size_var(n, a);
	x = *_x = (float*)realloc(*_x, n_var * sizeof(float));
	g = *_g = (float*)realloc(*_g, n_var * sizeof(float));
	c = *_c = (float*)realloc(*_c, kad_size_const(n, a) * sizeof(float));
	memset(g, 0, n_var * sizeof(float));
	for (i = j = k = 0; i < n; ++i) {
 8000558:	e0bff217 	ldw	r2,-56(fp)
 800055c:	10800044 	addi	r2,r2,1
 8000560:	e0bff215 	stw	r2,-56(fp)
 8000564:	e0fff217 	ldw	r3,-56(fp)
 8000568:	e0bffb17 	ldw	r2,-20(fp)
 800056c:	18bf9516 	blt	r3,r2,80003c4 <kad_ext_collate+0x124>
			free(v->x);
			v->x = &c[k];
			k += l;
		}
	}
}
 8000570:	0001883a 	nop
 8000574:	e6ffff04 	addi	sp,fp,-4
 8000578:	dfc00217 	ldw	ra,8(sp)
 800057c:	df000117 	ldw	fp,4(sp)
 8000580:	dc000017 	ldw	r16,0(sp)
 8000584:	dec00304 	addi	sp,sp,12
 8000588:	f800283a 	ret

0800058c <kad_ext_sync>:

static void kad_ext_sync(int n, kad_node_t **a, float *x, float *g, float *c)
{
 800058c:	f811883a 	mov	r8,ra
 8000590:	802e3940 	call	802e394 <_mcount>
 8000594:	403f883a 	mov	ra,r8
 8000598:	defff604 	addi	sp,sp,-40
 800059c:	dfc00915 	stw	ra,36(sp)
 80005a0:	df000815 	stw	fp,32(sp)
 80005a4:	df000804 	addi	fp,sp,32
 80005a8:	e13ffc15 	stw	r4,-16(fp)
 80005ac:	e17ffd15 	stw	r5,-12(fp)
 80005b0:	e1bffe15 	stw	r6,-8(fp)
 80005b4:	e1ffff15 	stw	r7,-4(fp)
	int i, j, k;
	for (i = j = k = 0; i < n; ++i) {
 80005b8:	e03ffa15 	stw	zero,-24(fp)
 80005bc:	e0bffa17 	ldw	r2,-24(fp)
 80005c0:	e0bff915 	stw	r2,-28(fp)
 80005c4:	e0bff917 	ldw	r2,-28(fp)
 80005c8:	e0bff815 	stw	r2,-32(fp)
 80005cc:	00004006 	br	80006d0 <kad_ext_sync+0x144>
		kad_node_t *v = a[i];
 80005d0:	e0bff817 	ldw	r2,-32(fp)
 80005d4:	1085883a 	add	r2,r2,r2
 80005d8:	1085883a 	add	r2,r2,r2
 80005dc:	1007883a 	mov	r3,r2
 80005e0:	e0bffd17 	ldw	r2,-12(fp)
 80005e4:	10c5883a 	add	r2,r2,r3
 80005e8:	10800017 	ldw	r2,0(r2)
 80005ec:	e0bffb15 	stw	r2,-20(fp)
		if (kad_is_var(v)) {
 80005f0:	e0bffb17 	ldw	r2,-20(fp)
 80005f4:	10800117 	ldw	r2,4(r2)
 80005f8:	10001c1e 	bne	r2,zero,800066c <kad_ext_sync+0xe0>
 80005fc:	e0bffb17 	ldw	r2,-20(fp)
 8000600:	10800043 	ldbu	r2,1(r2)
 8000604:	10803fcc 	andi	r2,r2,255
 8000608:	1080004c 	andi	r2,r2,1
 800060c:	10001726 	beq	r2,zero,800066c <kad_ext_sync+0xe0>
			v->x = &x[j];
 8000610:	e0bff917 	ldw	r2,-28(fp)
 8000614:	1085883a 	add	r2,r2,r2
 8000618:	1085883a 	add	r2,r2,r2
 800061c:	1007883a 	mov	r3,r2
 8000620:	e0bffe17 	ldw	r2,-8(fp)
 8000624:	10c7883a 	add	r3,r2,r3
 8000628:	e0bffb17 	ldw	r2,-20(fp)
 800062c:	10c00a15 	stw	r3,40(r2)
			v->g = &g[j];
 8000630:	e0bff917 	ldw	r2,-28(fp)
 8000634:	1085883a 	add	r2,r2,r2
 8000638:	1085883a 	add	r2,r2,r2
 800063c:	1007883a 	mov	r3,r2
 8000640:	e0bfff17 	ldw	r2,-4(fp)
 8000644:	10c7883a 	add	r3,r2,r3
 8000648:	e0bffb17 	ldw	r2,-20(fp)
 800064c:	10c00b15 	stw	r3,44(r2)
			j += kad_len(v);
 8000650:	e13ffb17 	ldw	r4,-20(fp)
 8000654:	80002180 	call	8000218 <kad_len>
 8000658:	1007883a 	mov	r3,r2
 800065c:	e0bff917 	ldw	r2,-28(fp)
 8000660:	10c5883a 	add	r2,r2,r3
 8000664:	e0bff915 	stw	r2,-28(fp)
 8000668:	00001606 	br	80006c4 <kad_ext_sync+0x138>
		} else if (kad_is_const(v)) {
 800066c:	e0bffb17 	ldw	r2,-20(fp)
 8000670:	10800117 	ldw	r2,4(r2)
 8000674:	1000131e 	bne	r2,zero,80006c4 <kad_ext_sync+0x138>
 8000678:	e0bffb17 	ldw	r2,-20(fp)
 800067c:	10800043 	ldbu	r2,1(r2)
 8000680:	10803fcc 	andi	r2,r2,255
 8000684:	1080008c 	andi	r2,r2,2
 8000688:	10000e26 	beq	r2,zero,80006c4 <kad_ext_sync+0x138>
			v->x = &c[k];
 800068c:	e0bffa17 	ldw	r2,-24(fp)
 8000690:	1085883a 	add	r2,r2,r2
 8000694:	1085883a 	add	r2,r2,r2
 8000698:	1007883a 	mov	r3,r2
 800069c:	e0800217 	ldw	r2,8(fp)
 80006a0:	10c7883a 	add	r3,r2,r3
 80006a4:	e0bffb17 	ldw	r2,-20(fp)
 80006a8:	10c00a15 	stw	r3,40(r2)
			k += kad_len(v);
 80006ac:	e13ffb17 	ldw	r4,-20(fp)
 80006b0:	80002180 	call	8000218 <kad_len>
 80006b4:	1007883a 	mov	r3,r2
 80006b8:	e0bffa17 	ldw	r2,-24(fp)
 80006bc:	10c5883a 	add	r2,r2,r3
 80006c0:	e0bffa15 	stw	r2,-24(fp)
}

static void kad_ext_sync(int n, kad_node_t **a, float *x, float *g, float *c)
{
	int i, j, k;
	for (i = j = k = 0; i < n; ++i) {
 80006c4:	e0bff817 	ldw	r2,-32(fp)
 80006c8:	10800044 	addi	r2,r2,1
 80006cc:	e0bff815 	stw	r2,-32(fp)
 80006d0:	e0fff817 	ldw	r3,-32(fp)
 80006d4:	e0bffc17 	ldw	r2,-16(fp)
 80006d8:	18bfbd16 	blt	r3,r2,80005d0 <kad_ext_sync+0x44>
		} else if (kad_is_const(v)) {
			v->x = &c[k];
			k += kad_len(v);
		}
	}
}
 80006dc:	0001883a 	nop
 80006e0:	e037883a 	mov	sp,fp
 80006e4:	dfc00117 	ldw	ra,4(sp)
 80006e8:	df000017 	ldw	fp,0(sp)
 80006ec:	dec00204 	addi	sp,sp,8
 80006f0:	f800283a 	ret

080006f4 <kann_new>:

kann_t *kann_new(kad_node_t *cost, int n_rest, ...)
{
 80006f4:	f811883a 	mov	r8,ra
 80006f8:	802e3940 	call	802e394 <_mcount>
 80006fc:	403f883a 	mov	ra,r8
 8000700:	defff104 	addi	sp,sp,-60
 8000704:	dfc00c15 	stw	ra,48(sp)
 8000708:	df000b15 	stw	fp,44(sp)
 800070c:	dc000a15 	stw	r16,40(sp)
 8000710:	df000b04 	addi	fp,sp,44
 8000714:	e13ffd15 	stw	r4,-12(fp)
 8000718:	e17ffe15 	stw	r5,-8(fp)
 800071c:	e1800215 	stw	r6,8(fp)
 8000720:	e1c00315 	stw	r7,12(fp)
	kann_t *a;
	int i, n_roots = 1 + n_rest, has_pivot = 0, has_recur = 0;
 8000724:	e0bffe17 	ldw	r2,-8(fp)
 8000728:	10800044 	addi	r2,r2,1
 800072c:	e0bff915 	stw	r2,-28(fp)
 8000730:	e03ff715 	stw	zero,-36(fp)
 8000734:	e03ff815 	stw	zero,-32(fp)
	kad_node_t **roots;
	va_list ap;

	if (cost->n_d != 0) return 0;
 8000738:	e0bffd17 	ldw	r2,-12(fp)
 800073c:	10800003 	ldbu	r2,0(r2)
 8000740:	10803fcc 	andi	r2,r2,255
 8000744:	10000226 	beq	r2,zero,8000750 <kann_new+0x5c>
 8000748:	0005883a 	mov	r2,zero
 800074c:	0000a006 	br	80009d0 <kann_new+0x2dc>

	va_start(ap, n_rest);
 8000750:	e0800204 	addi	r2,fp,8
 8000754:	e0bffc15 	stw	r2,-16(fp)
	roots = (kad_node_t**)malloc((n_roots + 1) * sizeof(kad_node_t*));
 8000758:	e0bff917 	ldw	r2,-28(fp)
 800075c:	10800044 	addi	r2,r2,1
 8000760:	1085883a 	add	r2,r2,r2
 8000764:	1085883a 	add	r2,r2,r2
 8000768:	1009883a 	mov	r4,r2
 800076c:	80219cc0 	call	80219cc <malloc>
 8000770:	e0bffa15 	stw	r2,-24(fp)
	for (i = 0; i < n_rest; ++i)
 8000774:	e03ff615 	stw	zero,-40(fp)
 8000778:	00000e06 	br	80007b4 <kann_new+0xc0>
		roots[i] = va_arg(ap, kad_node_t*);
 800077c:	e0bff617 	ldw	r2,-40(fp)
 8000780:	1085883a 	add	r2,r2,r2
 8000784:	1085883a 	add	r2,r2,r2
 8000788:	1007883a 	mov	r3,r2
 800078c:	e0bffa17 	ldw	r2,-24(fp)
 8000790:	10c7883a 	add	r3,r2,r3
 8000794:	e0bffc17 	ldw	r2,-16(fp)
 8000798:	11000104 	addi	r4,r2,4
 800079c:	e13ffc15 	stw	r4,-16(fp)
 80007a0:	10800017 	ldw	r2,0(r2)
 80007a4:	18800015 	stw	r2,0(r3)

	if (cost->n_d != 0) return 0;

	va_start(ap, n_rest);
	roots = (kad_node_t**)malloc((n_roots + 1) * sizeof(kad_node_t*));
	for (i = 0; i < n_rest; ++i)
 80007a8:	e0bff617 	ldw	r2,-40(fp)
 80007ac:	10800044 	addi	r2,r2,1
 80007b0:	e0bff615 	stw	r2,-40(fp)
 80007b4:	e0fff617 	ldw	r3,-40(fp)
 80007b8:	e0bffe17 	ldw	r2,-8(fp)
 80007bc:	18bfef16 	blt	r3,r2,800077c <kann_new+0x88>
		roots[i] = va_arg(ap, kad_node_t*);
	roots[i++] = cost;
 80007c0:	e0bff617 	ldw	r2,-40(fp)
 80007c4:	10c00044 	addi	r3,r2,1
 80007c8:	e0fff615 	stw	r3,-40(fp)
 80007cc:	1085883a 	add	r2,r2,r2
 80007d0:	1085883a 	add	r2,r2,r2
 80007d4:	1007883a 	mov	r3,r2
 80007d8:	e0bffa17 	ldw	r2,-24(fp)
 80007dc:	10c5883a 	add	r2,r2,r3
 80007e0:	e0fffd17 	ldw	r3,-12(fp)
 80007e4:	10c00015 	stw	r3,0(r2)
	va_end(ap);

	cost->ext_flag |= KANN_F_COST;
 80007e8:	e0bffd17 	ldw	r2,-12(fp)
 80007ec:	e0fffd17 	ldw	r3,-12(fp)
 80007f0:	18c00917 	ldw	r3,36(r3)
 80007f4:	18c00214 	ori	r3,r3,8
 80007f8:	10c00915 	stw	r3,36(r2)
	a = (kann_t*)calloc(1, sizeof(kann_t));
 80007fc:	01400604 	movi	r5,24
 8000800:	01000044 	movi	r4,1
 8000804:	801f5b80 	call	801f5b8 <calloc>
 8000808:	e0bffb15 	stw	r2,-20(fp)
	a->v = kad_compile_array(&a->n, n_roots, roots);
 800080c:	e0bffb17 	ldw	r2,-20(fp)
 8000810:	e1bffa17 	ldw	r6,-24(fp)
 8000814:	e17ff917 	ldw	r5,-28(fp)
 8000818:	1009883a 	mov	r4,r2
 800081c:	80075bc0 	call	80075bc <kad_compile_array>
 8000820:	1007883a 	mov	r3,r2
 8000824:	e0bffb17 	ldw	r2,-20(fp)
 8000828:	10c00115 	stw	r3,4(r2)

	for (i = 0; i < a->n; ++i) {
 800082c:	e03ff615 	stw	zero,-40(fp)
 8000830:	00002506 	br	80008c8 <kann_new+0x1d4>
		if (a->v[i]->pre) has_recur = 1;
 8000834:	e0bffb17 	ldw	r2,-20(fp)
 8000838:	10c00117 	ldw	r3,4(r2)
 800083c:	e0bff617 	ldw	r2,-40(fp)
 8000840:	1085883a 	add	r2,r2,r2
 8000844:	1085883a 	add	r2,r2,r2
 8000848:	1885883a 	add	r2,r3,r2
 800084c:	10800017 	ldw	r2,0(r2)
 8000850:	10800f17 	ldw	r2,60(r2)
 8000854:	10000226 	beq	r2,zero,8000860 <kann_new+0x16c>
 8000858:	00800044 	movi	r2,1
 800085c:	e0bff815 	stw	r2,-32(fp)
		if (kad_is_pivot(a->v[i])) has_pivot = 1;
 8000860:	e0bffb17 	ldw	r2,-20(fp)
 8000864:	10c00117 	ldw	r3,4(r2)
 8000868:	e0bff617 	ldw	r2,-40(fp)
 800086c:	1085883a 	add	r2,r2,r2
 8000870:	1085883a 	add	r2,r2,r2
 8000874:	1885883a 	add	r2,r3,r2
 8000878:	10800017 	ldw	r2,0(r2)
 800087c:	10800117 	ldw	r2,4(r2)
 8000880:	10800058 	cmpnei	r2,r2,1
 8000884:	10000d1e 	bne	r2,zero,80008bc <kann_new+0x1c8>
 8000888:	e0bffb17 	ldw	r2,-20(fp)
 800088c:	10c00117 	ldw	r3,4(r2)
 8000890:	e0bff617 	ldw	r2,-40(fp)
 8000894:	1085883a 	add	r2,r2,r2
 8000898:	1085883a 	add	r2,r2,r2
 800089c:	1885883a 	add	r2,r3,r2
 80008a0:	10800017 	ldw	r2,0(r2)
 80008a4:	10800043 	ldbu	r2,1(r2)
 80008a8:	10803fcc 	andi	r2,r2,255
 80008ac:	1080010c 	andi	r2,r2,4
 80008b0:	10000226 	beq	r2,zero,80008bc <kann_new+0x1c8>
 80008b4:	00800044 	movi	r2,1
 80008b8:	e0bff715 	stw	r2,-36(fp)

	cost->ext_flag |= KANN_F_COST;
	a = (kann_t*)calloc(1, sizeof(kann_t));
	a->v = kad_compile_array(&a->n, n_roots, roots);

	for (i = 0; i < a->n; ++i) {
 80008bc:	e0bff617 	ldw	r2,-40(fp)
 80008c0:	10800044 	addi	r2,r2,1
 80008c4:	e0bff615 	stw	r2,-40(fp)
 80008c8:	e0bffb17 	ldw	r2,-20(fp)
 80008cc:	10800017 	ldw	r2,0(r2)
 80008d0:	e0fff617 	ldw	r3,-40(fp)
 80008d4:	18bfd716 	blt	r3,r2,8000834 <kann_new+0x140>
		if (a->v[i]->pre) has_recur = 1;
		if (kad_is_pivot(a->v[i])) has_pivot = 1;
	}
	if (has_recur && !has_pivot) { /* an RNN that doesn't have a pivot; then add a pivot on top of cost and recompile */
 80008d8:	e0bff817 	ldw	r2,-32(fp)
 80008dc:	10002926 	beq	r2,zero,8000984 <kann_new+0x290>
 80008e0:	e0bff717 	ldw	r2,-36(fp)
 80008e4:	1000271e 	bne	r2,zero,8000984 <kann_new+0x290>
		cost->ext_flag &= ~KANN_F_COST;
 80008e8:	e0bffd17 	ldw	r2,-12(fp)
 80008ec:	e0fffd17 	ldw	r3,-12(fp)
 80008f0:	19000917 	ldw	r4,36(r3)
 80008f4:	00fffdc4 	movi	r3,-9
 80008f8:	20c6703a 	and	r3,r4,r3
 80008fc:	10c00915 	stw	r3,36(r2)
		roots[n_roots-1] = cost = kad_avg(1, &cost), cost->ext_flag |= KANN_F_COST;
 8000900:	e0fff917 	ldw	r3,-28(fp)
 8000904:	00900034 	movhi	r2,16384
 8000908:	10bfffc4 	addi	r2,r2,-1
 800090c:	1885883a 	add	r2,r3,r2
 8000910:	1085883a 	add	r2,r2,r2
 8000914:	1085883a 	add	r2,r2,r2
 8000918:	1007883a 	mov	r3,r2
 800091c:	e0bffa17 	ldw	r2,-24(fp)
 8000920:	10e1883a 	add	r16,r2,r3
 8000924:	e0bffd04 	addi	r2,fp,-12
 8000928:	100b883a 	mov	r5,r2
 800092c:	01000044 	movi	r4,1
 8000930:	80067380 	call	8006738 <kad_avg>
 8000934:	e0bffd15 	stw	r2,-12(fp)
 8000938:	e0bffd17 	ldw	r2,-12(fp)
 800093c:	80800015 	stw	r2,0(r16)
 8000940:	e0bffd17 	ldw	r2,-12(fp)
 8000944:	e0fffd17 	ldw	r3,-12(fp)
 8000948:	18c00917 	ldw	r3,36(r3)
 800094c:	18c00214 	ori	r3,r3,8
 8000950:	10c00915 	stw	r3,36(r2)
		free(a->v);
 8000954:	e0bffb17 	ldw	r2,-20(fp)
 8000958:	10800117 	ldw	r2,4(r2)
 800095c:	1009883a 	mov	r4,r2
 8000960:	80219ec0 	call	80219ec <free>
		a->v = kad_compile_array(&a->n, n_roots, roots);
 8000964:	e0bffb17 	ldw	r2,-20(fp)
 8000968:	e1bffa17 	ldw	r6,-24(fp)
 800096c:	e17ff917 	ldw	r5,-28(fp)
 8000970:	1009883a 	mov	r4,r2
 8000974:	80075bc0 	call	80075bc <kad_compile_array>
 8000978:	1007883a 	mov	r3,r2
 800097c:	e0bffb17 	ldw	r2,-20(fp)
 8000980:	10c00115 	stw	r3,4(r2)
	}
	kad_ext_collate(a->n, a->v, &a->x, &a->g, &a->c);
 8000984:	e0bffb17 	ldw	r2,-20(fp)
 8000988:	10c00017 	ldw	r3,0(r2)
 800098c:	e0bffb17 	ldw	r2,-20(fp)
 8000990:	11000117 	ldw	r4,4(r2)
 8000994:	e0bffb17 	ldw	r2,-20(fp)
 8000998:	11400204 	addi	r5,r2,8
 800099c:	e0bffb17 	ldw	r2,-20(fp)
 80009a0:	11800304 	addi	r6,r2,12
 80009a4:	e0bffb17 	ldw	r2,-20(fp)
 80009a8:	10800404 	addi	r2,r2,16
 80009ac:	d8800015 	stw	r2,0(sp)
 80009b0:	300f883a 	mov	r7,r6
 80009b4:	280d883a 	mov	r6,r5
 80009b8:	200b883a 	mov	r5,r4
 80009bc:	1809883a 	mov	r4,r3
 80009c0:	80002a00 	call	80002a0 <kad_ext_collate>
	free(roots);
 80009c4:	e13ffa17 	ldw	r4,-24(fp)
 80009c8:	80219ec0 	call	80219ec <free>
	return a;
 80009cc:	e0bffb17 	ldw	r2,-20(fp)
}
 80009d0:	e6ffff04 	addi	sp,fp,-4
 80009d4:	dfc00217 	ldw	ra,8(sp)
 80009d8:	df000117 	ldw	fp,4(sp)
 80009dc:	dc000017 	ldw	r16,0(sp)
 80009e0:	dec00504 	addi	sp,sp,20
 80009e4:	f800283a 	ret

080009e8 <kann_clone>:

kann_t *kann_clone(kann_t *a, int batch_size)
{
 80009e8:	f811883a 	mov	r8,ra
 80009ec:	802e3940 	call	802e394 <_mcount>
 80009f0:	403f883a 	mov	ra,r8
 80009f4:	defffa04 	addi	sp,sp,-24
 80009f8:	dfc00515 	stw	ra,20(sp)
 80009fc:	df000415 	stw	fp,16(sp)
 8000a00:	df000404 	addi	fp,sp,16
 8000a04:	e13ffe15 	stw	r4,-8(fp)
 8000a08:	e17fff15 	stw	r5,-4(fp)
	kann_t *b;
	b = (kann_t*)calloc(1, sizeof(kann_t));
 8000a0c:	01400604 	movi	r5,24
 8000a10:	01000044 	movi	r4,1
 8000a14:	801f5b80 	call	801f5b8 <calloc>
 8000a18:	e0bffd15 	stw	r2,-12(fp)
	b->n = a->n;
 8000a1c:	e0bffe17 	ldw	r2,-8(fp)
 8000a20:	10c00017 	ldw	r3,0(r2)
 8000a24:	e0bffd17 	ldw	r2,-12(fp)
 8000a28:	10c00015 	stw	r3,0(r2)
	b->v = kad_clone(a->n, a->v, batch_size);
 8000a2c:	e0bffe17 	ldw	r2,-8(fp)
 8000a30:	10c00017 	ldw	r3,0(r2)
 8000a34:	e0bffe17 	ldw	r2,-8(fp)
 8000a38:	10800117 	ldw	r2,4(r2)
 8000a3c:	e1bfff17 	ldw	r6,-4(fp)
 8000a40:	100b883a 	mov	r5,r2
 8000a44:	1809883a 	mov	r4,r3
 8000a48:	8008e800 	call	8008e80 <kad_clone>
 8000a4c:	1007883a 	mov	r3,r2
 8000a50:	e0bffd17 	ldw	r2,-12(fp)
 8000a54:	10c00115 	stw	r3,4(r2)
	kad_ext_collate(b->n, b->v, &b->x, &b->g, &b->c);
 8000a58:	e0bffd17 	ldw	r2,-12(fp)
 8000a5c:	10c00017 	ldw	r3,0(r2)
 8000a60:	e0bffd17 	ldw	r2,-12(fp)
 8000a64:	11000117 	ldw	r4,4(r2)
 8000a68:	e0bffd17 	ldw	r2,-12(fp)
 8000a6c:	11400204 	addi	r5,r2,8
 8000a70:	e0bffd17 	ldw	r2,-12(fp)
 8000a74:	11800304 	addi	r6,r2,12
 8000a78:	e0bffd17 	ldw	r2,-12(fp)
 8000a7c:	10800404 	addi	r2,r2,16
 8000a80:	d8800015 	stw	r2,0(sp)
 8000a84:	300f883a 	mov	r7,r6
 8000a88:	280d883a 	mov	r6,r5
 8000a8c:	200b883a 	mov	r5,r4
 8000a90:	1809883a 	mov	r4,r3
 8000a94:	80002a00 	call	80002a0 <kad_ext_collate>
	return b;
 8000a98:	e0bffd17 	ldw	r2,-12(fp)
}
 8000a9c:	e037883a 	mov	sp,fp
 8000aa0:	dfc00117 	ldw	ra,4(sp)
 8000aa4:	df000017 	ldw	fp,0(sp)
 8000aa8:	dec00204 	addi	sp,sp,8
 8000aac:	f800283a 	ret

08000ab0 <kann_unroll_array>:

kann_t *kann_unroll_array(kann_t *a, int *len)
{
 8000ab0:	f811883a 	mov	r8,ra
 8000ab4:	802e3940 	call	802e394 <_mcount>
 8000ab8:	403f883a 	mov	ra,r8
 8000abc:	defffa04 	addi	sp,sp,-24
 8000ac0:	dfc00515 	stw	ra,20(sp)
 8000ac4:	df000415 	stw	fp,16(sp)
 8000ac8:	df000404 	addi	fp,sp,16
 8000acc:	e13ffe15 	stw	r4,-8(fp)
 8000ad0:	e17fff15 	stw	r5,-4(fp)
	kann_t *b;
	int n_pivots;
	n_pivots = kad_n_pivots(a->n, a->v);
 8000ad4:	e0bffe17 	ldw	r2,-8(fp)
 8000ad8:	10c00017 	ldw	r3,0(r2)
 8000adc:	e0bffe17 	ldw	r2,-8(fp)
 8000ae0:	10800117 	ldw	r2,4(r2)
 8000ae4:	100b883a 	mov	r5,r2
 8000ae8:	1809883a 	mov	r4,r3
 8000aec:	8009b440 	call	8009b44 <kad_n_pivots>
 8000af0:	e0bffc15 	stw	r2,-16(fp)
	b = (kann_t*)calloc(1, sizeof(kann_t));
 8000af4:	01400604 	movi	r5,24
 8000af8:	01000044 	movi	r4,1
 8000afc:	801f5b80 	call	801f5b8 <calloc>
 8000b00:	e0bffd15 	stw	r2,-12(fp)
	b->x = a->x, b->g = a->g, b->c = a->c; /* these arrays are shared */
 8000b04:	e0bffe17 	ldw	r2,-8(fp)
 8000b08:	10c00217 	ldw	r3,8(r2)
 8000b0c:	e0bffd17 	ldw	r2,-12(fp)
 8000b10:	10c00215 	stw	r3,8(r2)
 8000b14:	e0bffe17 	ldw	r2,-8(fp)
 8000b18:	10c00317 	ldw	r3,12(r2)
 8000b1c:	e0bffd17 	ldw	r2,-12(fp)
 8000b20:	10c00315 	stw	r3,12(r2)
 8000b24:	e0bffe17 	ldw	r2,-8(fp)
 8000b28:	10c00417 	ldw	r3,16(r2)
 8000b2c:	e0bffd17 	ldw	r2,-12(fp)
 8000b30:	10c00415 	stw	r3,16(r2)
	b->v = kad_unroll(a->n, a->v, &b->n, len);
 8000b34:	e0bffe17 	ldw	r2,-8(fp)
 8000b38:	10c00017 	ldw	r3,0(r2)
 8000b3c:	e0bffe17 	ldw	r2,-8(fp)
 8000b40:	10800117 	ldw	r2,4(r2)
 8000b44:	e13ffd17 	ldw	r4,-12(fp)
 8000b48:	e1ffff17 	ldw	r7,-4(fp)
 8000b4c:	200d883a 	mov	r6,r4
 8000b50:	100b883a 	mov	r5,r2
 8000b54:	1809883a 	mov	r4,r3
 8000b58:	8009bfc0 	call	8009bfc <kad_unroll>
 8000b5c:	1007883a 	mov	r3,r2
 8000b60:	e0bffd17 	ldw	r2,-12(fp)
 8000b64:	10c00115 	stw	r3,4(r2)
	return b;
 8000b68:	e0bffd17 	ldw	r2,-12(fp)
}
 8000b6c:	e037883a 	mov	sp,fp
 8000b70:	dfc00117 	ldw	ra,4(sp)
 8000b74:	df000017 	ldw	fp,0(sp)
 8000b78:	dec00204 	addi	sp,sp,8
 8000b7c:	f800283a 	ret

08000b80 <kann_unroll>:

kann_t *kann_unroll(kann_t *a, ...)
{
 8000b80:	f811883a 	mov	r8,ra
 8000b84:	802e3940 	call	802e394 <_mcount>
 8000b88:	403f883a 	mov	ra,r8
 8000b8c:	defff504 	addi	sp,sp,-44
 8000b90:	dfc00715 	stw	ra,28(sp)
 8000b94:	df000615 	stw	fp,24(sp)
 8000b98:	df000604 	addi	fp,sp,24
 8000b9c:	e13fff15 	stw	r4,-4(fp)
 8000ba0:	e1400215 	stw	r5,8(fp)
 8000ba4:	e1800315 	stw	r6,12(fp)
 8000ba8:	e1c00415 	stw	r7,16(fp)
	kann_t *b;
	va_list ap;
	int i, n_pivots, *len;
	n_pivots = kad_n_pivots(a->n, a->v);
 8000bac:	e0bfff17 	ldw	r2,-4(fp)
 8000bb0:	10c00017 	ldw	r3,0(r2)
 8000bb4:	e0bfff17 	ldw	r2,-4(fp)
 8000bb8:	10800117 	ldw	r2,4(r2)
 8000bbc:	100b883a 	mov	r5,r2
 8000bc0:	1809883a 	mov	r4,r3
 8000bc4:	8009b440 	call	8009b44 <kad_n_pivots>
 8000bc8:	e0bffb15 	stw	r2,-20(fp)
	len = (int*)calloc(n_pivots, sizeof(int));
 8000bcc:	e0bffb17 	ldw	r2,-20(fp)
 8000bd0:	01400104 	movi	r5,4
 8000bd4:	1009883a 	mov	r4,r2
 8000bd8:	801f5b80 	call	801f5b8 <calloc>
 8000bdc:	e0bffc15 	stw	r2,-16(fp)
	va_start(ap, a);
 8000be0:	e0800204 	addi	r2,fp,8
 8000be4:	e0bffe15 	stw	r2,-8(fp)
	for (i = 0; i < n_pivots; ++i) len[i] = va_arg(ap, int);
 8000be8:	e03ffa15 	stw	zero,-24(fp)
 8000bec:	00000e06 	br	8000c28 <kann_unroll+0xa8>
 8000bf0:	e0bffa17 	ldw	r2,-24(fp)
 8000bf4:	1085883a 	add	r2,r2,r2
 8000bf8:	1085883a 	add	r2,r2,r2
 8000bfc:	1007883a 	mov	r3,r2
 8000c00:	e0bffc17 	ldw	r2,-16(fp)
 8000c04:	10c7883a 	add	r3,r2,r3
 8000c08:	e0bffe17 	ldw	r2,-8(fp)
 8000c0c:	11000104 	addi	r4,r2,4
 8000c10:	e13ffe15 	stw	r4,-8(fp)
 8000c14:	10800017 	ldw	r2,0(r2)
 8000c18:	18800015 	stw	r2,0(r3)
 8000c1c:	e0bffa17 	ldw	r2,-24(fp)
 8000c20:	10800044 	addi	r2,r2,1
 8000c24:	e0bffa15 	stw	r2,-24(fp)
 8000c28:	e0fffa17 	ldw	r3,-24(fp)
 8000c2c:	e0bffb17 	ldw	r2,-20(fp)
 8000c30:	18bfef16 	blt	r3,r2,8000bf0 <kann_unroll+0x70>
	va_end(ap);
	b = kann_unroll_array(a, len);
 8000c34:	e17ffc17 	ldw	r5,-16(fp)
 8000c38:	e13fff17 	ldw	r4,-4(fp)
 8000c3c:	8000ab00 	call	8000ab0 <kann_unroll_array>
 8000c40:	e0bffd15 	stw	r2,-12(fp)
	free(len);
 8000c44:	e13ffc17 	ldw	r4,-16(fp)
 8000c48:	80219ec0 	call	80219ec <free>
	return b;
 8000c4c:	e0bffd17 	ldw	r2,-12(fp)
}
 8000c50:	e037883a 	mov	sp,fp
 8000c54:	dfc00117 	ldw	ra,4(sp)
 8000c58:	df000017 	ldw	fp,0(sp)
 8000c5c:	dec00504 	addi	sp,sp,20
 8000c60:	f800283a 	ret

08000c64 <kann_delete_unrolled>:

void kann_delete_unrolled(kann_t *a)
{
 8000c64:	f811883a 	mov	r8,ra
 8000c68:	802e3940 	call	802e394 <_mcount>
 8000c6c:	403f883a 	mov	ra,r8
 8000c70:	defffd04 	addi	sp,sp,-12
 8000c74:	dfc00215 	stw	ra,8(sp)
 8000c78:	df000115 	stw	fp,4(sp)
 8000c7c:	df000104 	addi	fp,sp,4
 8000c80:	e13fff15 	stw	r4,-4(fp)
	if (a && a->mt) kann_mt(a, 0, 0);
 8000c84:	e0bfff17 	ldw	r2,-4(fp)
 8000c88:	10000726 	beq	r2,zero,8000ca8 <kann_delete_unrolled+0x44>
 8000c8c:	e0bfff17 	ldw	r2,-4(fp)
 8000c90:	10800517 	ldw	r2,20(r2)
 8000c94:	10000426 	beq	r2,zero,8000ca8 <kann_delete_unrolled+0x44>
 8000c98:	000d883a 	mov	r6,zero
 8000c9c:	000b883a 	mov	r5,zero
 8000ca0:	e13fff17 	ldw	r4,-4(fp)
 8000ca4:	8001b000 	call	8001b00 <kann_mt>
	if (a && a->v) kad_delete(a->n, a->v);
 8000ca8:	e0bfff17 	ldw	r2,-4(fp)
 8000cac:	10000a26 	beq	r2,zero,8000cd8 <kann_delete_unrolled+0x74>
 8000cb0:	e0bfff17 	ldw	r2,-4(fp)
 8000cb4:	10800117 	ldw	r2,4(r2)
 8000cb8:	10000726 	beq	r2,zero,8000cd8 <kann_delete_unrolled+0x74>
 8000cbc:	e0bfff17 	ldw	r2,-4(fp)
 8000cc0:	10c00017 	ldw	r3,0(r2)
 8000cc4:	e0bfff17 	ldw	r2,-4(fp)
 8000cc8:	10800117 	ldw	r2,4(r2)
 8000ccc:	100b883a 	mov	r5,r2
 8000cd0:	1809883a 	mov	r4,r3
 8000cd4:	8007c980 	call	8007c98 <kad_delete>
	free(a);
 8000cd8:	e13fff17 	ldw	r4,-4(fp)
 8000cdc:	80219ec0 	call	80219ec <free>
}
 8000ce0:	0001883a 	nop
 8000ce4:	e037883a 	mov	sp,fp
 8000ce8:	dfc00117 	ldw	ra,4(sp)
 8000cec:	df000017 	ldw	fp,0(sp)
 8000cf0:	dec00204 	addi	sp,sp,8
 8000cf4:	f800283a 	ret

08000cf8 <kann_delete>:

void kann_delete(kann_t *a)
{
 8000cf8:	f811883a 	mov	r8,ra
 8000cfc:	802e3940 	call	802e394 <_mcount>
 8000d00:	403f883a 	mov	ra,r8
 8000d04:	defffd04 	addi	sp,sp,-12
 8000d08:	dfc00215 	stw	ra,8(sp)
 8000d0c:	df000115 	stw	fp,4(sp)
 8000d10:	df000104 	addi	fp,sp,4
 8000d14:	e13fff15 	stw	r4,-4(fp)
	if (a == 0) return;
 8000d18:	e0bfff17 	ldw	r2,-4(fp)
 8000d1c:	10000f26 	beq	r2,zero,8000d5c <kann_delete+0x64>
	free(a->x); free(a->g); free(a->c);
 8000d20:	e0bfff17 	ldw	r2,-4(fp)
 8000d24:	10800217 	ldw	r2,8(r2)
 8000d28:	1009883a 	mov	r4,r2
 8000d2c:	80219ec0 	call	80219ec <free>
 8000d30:	e0bfff17 	ldw	r2,-4(fp)
 8000d34:	10800317 	ldw	r2,12(r2)
 8000d38:	1009883a 	mov	r4,r2
 8000d3c:	80219ec0 	call	80219ec <free>
 8000d40:	e0bfff17 	ldw	r2,-4(fp)
 8000d44:	10800417 	ldw	r2,16(r2)
 8000d48:	1009883a 	mov	r4,r2
 8000d4c:	80219ec0 	call	80219ec <free>
	kann_delete_unrolled(a);
 8000d50:	e13fff17 	ldw	r4,-4(fp)
 8000d54:	8000c640 	call	8000c64 <kann_delete_unrolled>
 8000d58:	00000106 	br	8000d60 <kann_delete+0x68>
	free(a);
}

void kann_delete(kann_t *a)
{
	if (a == 0) return;
 8000d5c:	0001883a 	nop
	free(a->x); free(a->g); free(a->c);
	kann_delete_unrolled(a);
}
 8000d60:	e037883a 	mov	sp,fp
 8000d64:	dfc00117 	ldw	ra,4(sp)
 8000d68:	df000017 	ldw	fp,0(sp)
 8000d6c:	dec00204 	addi	sp,sp,8
 8000d70:	f800283a 	ret

08000d74 <kann_switch_core>:

static void kann_switch_core(kann_t *a, int is_train)
{
 8000d74:	f811883a 	mov	r8,ra
 8000d78:	802e3940 	call	802e394 <_mcount>
 8000d7c:	403f883a 	mov	ra,r8
 8000d80:	defffc04 	addi	sp,sp,-16
 8000d84:	df000315 	stw	fp,12(sp)
 8000d88:	df000304 	addi	fp,sp,12
 8000d8c:	e13ffe15 	stw	r4,-8(fp)
 8000d90:	e17fff15 	stw	r5,-4(fp)
	int i;
	for (i = 0; i < a->n; ++i)
 8000d94:	e03ffd15 	stw	zero,-12(fp)
 8000d98:	00002406 	br	8000e2c <kann_switch_core+0xb8>
		if (a->v[i]->op == 12 && a->v[i]->n_child == 2)
 8000d9c:	e0bffe17 	ldw	r2,-8(fp)
 8000da0:	10c00117 	ldw	r3,4(r2)
 8000da4:	e0bffd17 	ldw	r2,-12(fp)
 8000da8:	1085883a 	add	r2,r2,r2
 8000dac:	1085883a 	add	r2,r2,r2
 8000db0:	1885883a 	add	r2,r3,r2
 8000db4:	10800017 	ldw	r2,0(r2)
 8000db8:	1080008b 	ldhu	r2,2(r2)
 8000dbc:	10bfffcc 	andi	r2,r2,65535
 8000dc0:	10800318 	cmpnei	r2,r2,12
 8000dc4:	1000161e 	bne	r2,zero,8000e20 <kann_switch_core+0xac>
 8000dc8:	e0bffe17 	ldw	r2,-8(fp)
 8000dcc:	10c00117 	ldw	r3,4(r2)
 8000dd0:	e0bffd17 	ldw	r2,-12(fp)
 8000dd4:	1085883a 	add	r2,r2,r2
 8000dd8:	1085883a 	add	r2,r2,r2
 8000ddc:	1885883a 	add	r2,r3,r2
 8000de0:	10800017 	ldw	r2,0(r2)
 8000de4:	10800117 	ldw	r2,4(r2)
 8000de8:	10800098 	cmpnei	r2,r2,2
 8000dec:	10000c1e 	bne	r2,zero,8000e20 <kann_switch_core+0xac>
			*(int32_t*)a->v[i]->ptr = !!is_train;
 8000df0:	e0bffe17 	ldw	r2,-8(fp)
 8000df4:	10c00117 	ldw	r3,4(r2)
 8000df8:	e0bffd17 	ldw	r2,-12(fp)
 8000dfc:	1085883a 	add	r2,r2,r2
 8000e00:	1085883a 	add	r2,r2,r2
 8000e04:	1885883a 	add	r2,r3,r2
 8000e08:	10800017 	ldw	r2,0(r2)
 8000e0c:	10800c17 	ldw	r2,48(r2)
 8000e10:	e0ffff17 	ldw	r3,-4(fp)
 8000e14:	1806c03a 	cmpne	r3,r3,zero
 8000e18:	18c03fcc 	andi	r3,r3,255
 8000e1c:	10c00015 	stw	r3,0(r2)
}

static void kann_switch_core(kann_t *a, int is_train)
{
	int i;
	for (i = 0; i < a->n; ++i)
 8000e20:	e0bffd17 	ldw	r2,-12(fp)
 8000e24:	10800044 	addi	r2,r2,1
 8000e28:	e0bffd15 	stw	r2,-12(fp)
 8000e2c:	e0bffe17 	ldw	r2,-8(fp)
 8000e30:	10800017 	ldw	r2,0(r2)
 8000e34:	e0fffd17 	ldw	r3,-12(fp)
 8000e38:	18bfd816 	blt	r3,r2,8000d9c <kann_switch_core+0x28>
		if (a->v[i]->op == 12 && a->v[i]->n_child == 2)
			*(int32_t*)a->v[i]->ptr = !!is_train;
}
 8000e3c:	0001883a 	nop
 8000e40:	e037883a 	mov	sp,fp
 8000e44:	df000017 	ldw	fp,0(sp)
 8000e48:	dec00104 	addi	sp,sp,4
 8000e4c:	f800283a 	ret

08000e50 <kann_find>:

#define chk_flg(flag, mask) ((mask) == 0 || ((flag) & (mask)))
#define chk_lbl(label, query) ((query) == 0 || (label) == (query))

int kann_find(const kann_t *a, uint32_t ext_flag, int32_t ext_label)
{
 8000e50:	f811883a 	mov	r8,ra
 8000e54:	802e3940 	call	802e394 <_mcount>
 8000e58:	403f883a 	mov	ra,r8
 8000e5c:	defff904 	addi	sp,sp,-28
 8000e60:	df000615 	stw	fp,24(sp)
 8000e64:	df000604 	addi	fp,sp,24
 8000e68:	e13ffd15 	stw	r4,-12(fp)
 8000e6c:	e17ffe15 	stw	r5,-8(fp)
 8000e70:	e1bfff15 	stw	r6,-4(fp)
	int i, k, r = -1;
 8000e74:	00bfffc4 	movi	r2,-1
 8000e78:	e0bffc15 	stw	r2,-16(fp)
	for (i = k = 0; i < a->n; ++i)
 8000e7c:	e03ffb15 	stw	zero,-20(fp)
 8000e80:	e0bffb17 	ldw	r2,-20(fp)
 8000e84:	e0bffa15 	stw	r2,-24(fp)
 8000e88:	00002106 	br	8000f10 <kann_find+0xc0>
		if (chk_flg(a->v[i]->ext_flag, ext_flag) && chk_lbl(a->v[i]->ext_label, ext_label))
 8000e8c:	e0bffe17 	ldw	r2,-8(fp)
 8000e90:	10000b26 	beq	r2,zero,8000ec0 <kann_find+0x70>
 8000e94:	e0bffd17 	ldw	r2,-12(fp)
 8000e98:	10c00117 	ldw	r3,4(r2)
 8000e9c:	e0bffa17 	ldw	r2,-24(fp)
 8000ea0:	1085883a 	add	r2,r2,r2
 8000ea4:	1085883a 	add	r2,r2,r2
 8000ea8:	1885883a 	add	r2,r3,r2
 8000eac:	10800017 	ldw	r2,0(r2)
 8000eb0:	10c00917 	ldw	r3,36(r2)
 8000eb4:	e0bffe17 	ldw	r2,-8(fp)
 8000eb8:	1884703a 	and	r2,r3,r2
 8000ebc:	10001126 	beq	r2,zero,8000f04 <kann_find+0xb4>
 8000ec0:	e0bfff17 	ldw	r2,-4(fp)
 8000ec4:	10000a26 	beq	r2,zero,8000ef0 <kann_find+0xa0>
 8000ec8:	e0bffd17 	ldw	r2,-12(fp)
 8000ecc:	10c00117 	ldw	r3,4(r2)
 8000ed0:	e0bffa17 	ldw	r2,-24(fp)
 8000ed4:	1085883a 	add	r2,r2,r2
 8000ed8:	1085883a 	add	r2,r2,r2
 8000edc:	1885883a 	add	r2,r3,r2
 8000ee0:	10800017 	ldw	r2,0(r2)
 8000ee4:	10c00817 	ldw	r3,32(r2)
 8000ee8:	e0bfff17 	ldw	r2,-4(fp)
 8000eec:	1880051e 	bne	r3,r2,8000f04 <kann_find+0xb4>
			++k, r = i;
 8000ef0:	e0bffb17 	ldw	r2,-20(fp)
 8000ef4:	10800044 	addi	r2,r2,1
 8000ef8:	e0bffb15 	stw	r2,-20(fp)
 8000efc:	e0bffa17 	ldw	r2,-24(fp)
 8000f00:	e0bffc15 	stw	r2,-16(fp)
#define chk_lbl(label, query) ((query) == 0 || (label) == (query))

int kann_find(const kann_t *a, uint32_t ext_flag, int32_t ext_label)
{
	int i, k, r = -1;
	for (i = k = 0; i < a->n; ++i)
 8000f04:	e0bffa17 	ldw	r2,-24(fp)
 8000f08:	10800044 	addi	r2,r2,1
 8000f0c:	e0bffa15 	stw	r2,-24(fp)
 8000f10:	e0bffd17 	ldw	r2,-12(fp)
 8000f14:	10800017 	ldw	r2,0(r2)
 8000f18:	e0fffa17 	ldw	r3,-24(fp)
 8000f1c:	18bfdb16 	blt	r3,r2,8000e8c <kann_find+0x3c>
		if (chk_flg(a->v[i]->ext_flag, ext_flag) && chk_lbl(a->v[i]->ext_label, ext_label))
			++k, r = i;
	return k == 1? r : k == 0? -1 : -2;
 8000f20:	e0bffb17 	ldw	r2,-20(fp)
 8000f24:	10800060 	cmpeqi	r2,r2,1
 8000f28:	1000061e 	bne	r2,zero,8000f44 <kann_find+0xf4>
 8000f2c:	e0bffb17 	ldw	r2,-20(fp)
 8000f30:	1000021e 	bne	r2,zero,8000f3c <kann_find+0xec>
 8000f34:	00bfffc4 	movi	r2,-1
 8000f38:	00000306 	br	8000f48 <kann_find+0xf8>
 8000f3c:	00bfff84 	movi	r2,-2
 8000f40:	00000106 	br	8000f48 <kann_find+0xf8>
 8000f44:	e0bffc17 	ldw	r2,-16(fp)
}
 8000f48:	e037883a 	mov	sp,fp
 8000f4c:	df000017 	ldw	fp,0(sp)
 8000f50:	dec00104 	addi	sp,sp,4
 8000f54:	f800283a 	ret

08000f58 <kann_feed_bind>:

int kann_feed_bind(kann_t *a, uint32_t ext_flag, int32_t ext_label, float **x)
{
 8000f58:	f811883a 	mov	r8,ra
 8000f5c:	802e3940 	call	802e394 <_mcount>
 8000f60:	403f883a 	mov	ra,r8
 8000f64:	defff904 	addi	sp,sp,-28
 8000f68:	df000615 	stw	fp,24(sp)
 8000f6c:	df000604 	addi	fp,sp,24
 8000f70:	e13ffc15 	stw	r4,-16(fp)
 8000f74:	e17ffd15 	stw	r5,-12(fp)
 8000f78:	e1bffe15 	stw	r6,-8(fp)
 8000f7c:	e1ffff15 	stw	r7,-4(fp)
	int i, k;
	if (x == 0) return 0;
 8000f80:	e0bfff17 	ldw	r2,-4(fp)
 8000f84:	1000021e 	bne	r2,zero,8000f90 <kann_feed_bind+0x38>
 8000f88:	0005883a 	mov	r2,zero
 8000f8c:	00005506 	br	80010e4 <kann_feed_bind+0x18c>
	for (i = k = 0; i < a->n; ++i)
 8000f90:	e03ffb15 	stw	zero,-20(fp)
 8000f94:	e0bffb17 	ldw	r2,-20(fp)
 8000f98:	e0bffa15 	stw	r2,-24(fp)
 8000f9c:	00004c06 	br	80010d0 <kann_feed_bind+0x178>
		if (kad_is_feed(a->v[i]) && chk_flg(a->v[i]->ext_flag, ext_flag) && chk_lbl(a->v[i]->ext_label, ext_label))
 8000fa0:	e0bffc17 	ldw	r2,-16(fp)
 8000fa4:	10c00117 	ldw	r3,4(r2)
 8000fa8:	e0bffa17 	ldw	r2,-24(fp)
 8000fac:	1085883a 	add	r2,r2,r2
 8000fb0:	1085883a 	add	r2,r2,r2
 8000fb4:	1885883a 	add	r2,r3,r2
 8000fb8:	10800017 	ldw	r2,0(r2)
 8000fbc:	10800117 	ldw	r2,4(r2)
 8000fc0:	1000401e 	bne	r2,zero,80010c4 <kann_feed_bind+0x16c>
 8000fc4:	e0bffc17 	ldw	r2,-16(fp)
 8000fc8:	10c00117 	ldw	r3,4(r2)
 8000fcc:	e0bffa17 	ldw	r2,-24(fp)
 8000fd0:	1085883a 	add	r2,r2,r2
 8000fd4:	1085883a 	add	r2,r2,r2
 8000fd8:	1885883a 	add	r2,r3,r2
 8000fdc:	10800017 	ldw	r2,0(r2)
 8000fe0:	10800043 	ldbu	r2,1(r2)
 8000fe4:	10803fcc 	andi	r2,r2,255
 8000fe8:	1080004c 	andi	r2,r2,1
 8000fec:	1000351e 	bne	r2,zero,80010c4 <kann_feed_bind+0x16c>
 8000ff0:	e0bffc17 	ldw	r2,-16(fp)
 8000ff4:	10c00117 	ldw	r3,4(r2)
 8000ff8:	e0bffa17 	ldw	r2,-24(fp)
 8000ffc:	1085883a 	add	r2,r2,r2
 8001000:	1085883a 	add	r2,r2,r2
 8001004:	1885883a 	add	r2,r3,r2
 8001008:	10800017 	ldw	r2,0(r2)
 800100c:	10800043 	ldbu	r2,1(r2)
 8001010:	10803fcc 	andi	r2,r2,255
 8001014:	1080008c 	andi	r2,r2,2
 8001018:	10002a1e 	bne	r2,zero,80010c4 <kann_feed_bind+0x16c>
 800101c:	e0bffd17 	ldw	r2,-12(fp)
 8001020:	10000b26 	beq	r2,zero,8001050 <kann_feed_bind+0xf8>
 8001024:	e0bffc17 	ldw	r2,-16(fp)
 8001028:	10c00117 	ldw	r3,4(r2)
 800102c:	e0bffa17 	ldw	r2,-24(fp)
 8001030:	1085883a 	add	r2,r2,r2
 8001034:	1085883a 	add	r2,r2,r2
 8001038:	1885883a 	add	r2,r3,r2
 800103c:	10800017 	ldw	r2,0(r2)
 8001040:	10c00917 	ldw	r3,36(r2)
 8001044:	e0bffd17 	ldw	r2,-12(fp)
 8001048:	1884703a 	and	r2,r3,r2
 800104c:	10001d26 	beq	r2,zero,80010c4 <kann_feed_bind+0x16c>
 8001050:	e0bffe17 	ldw	r2,-8(fp)
 8001054:	10000a26 	beq	r2,zero,8001080 <kann_feed_bind+0x128>
 8001058:	e0bffc17 	ldw	r2,-16(fp)
 800105c:	10c00117 	ldw	r3,4(r2)
 8001060:	e0bffa17 	ldw	r2,-24(fp)
 8001064:	1085883a 	add	r2,r2,r2
 8001068:	1085883a 	add	r2,r2,r2
 800106c:	1885883a 	add	r2,r3,r2
 8001070:	10800017 	ldw	r2,0(r2)
 8001074:	10c00817 	ldw	r3,32(r2)
 8001078:	e0bffe17 	ldw	r2,-8(fp)
 800107c:	1880111e 	bne	r3,r2,80010c4 <kann_feed_bind+0x16c>
			a->v[i]->x = x[k++];
 8001080:	e0bffc17 	ldw	r2,-16(fp)
 8001084:	10c00117 	ldw	r3,4(r2)
 8001088:	e0bffa17 	ldw	r2,-24(fp)
 800108c:	1085883a 	add	r2,r2,r2
 8001090:	1085883a 	add	r2,r2,r2
 8001094:	1885883a 	add	r2,r3,r2
 8001098:	10c00017 	ldw	r3,0(r2)
 800109c:	e0bffb17 	ldw	r2,-20(fp)
 80010a0:	11000044 	addi	r4,r2,1
 80010a4:	e13ffb15 	stw	r4,-20(fp)
 80010a8:	1085883a 	add	r2,r2,r2
 80010ac:	1085883a 	add	r2,r2,r2
 80010b0:	1009883a 	mov	r4,r2
 80010b4:	e0bfff17 	ldw	r2,-4(fp)
 80010b8:	1105883a 	add	r2,r2,r4
 80010bc:	10800017 	ldw	r2,0(r2)
 80010c0:	18800a15 	stw	r2,40(r3)

int kann_feed_bind(kann_t *a, uint32_t ext_flag, int32_t ext_label, float **x)
{
	int i, k;
	if (x == 0) return 0;
	for (i = k = 0; i < a->n; ++i)
 80010c4:	e0bffa17 	ldw	r2,-24(fp)
 80010c8:	10800044 	addi	r2,r2,1
 80010cc:	e0bffa15 	stw	r2,-24(fp)
 80010d0:	e0bffc17 	ldw	r2,-16(fp)
 80010d4:	10800017 	ldw	r2,0(r2)
 80010d8:	e0fffa17 	ldw	r3,-24(fp)
 80010dc:	18bfb016 	blt	r3,r2,8000fa0 <kann_feed_bind+0x48>
		if (kad_is_feed(a->v[i]) && chk_flg(a->v[i]->ext_flag, ext_flag) && chk_lbl(a->v[i]->ext_label, ext_label))
			a->v[i]->x = x[k++];
	return k;
 80010e0:	e0bffb17 	ldw	r2,-20(fp)
}
 80010e4:	e037883a 	mov	sp,fp
 80010e8:	df000017 	ldw	fp,0(sp)
 80010ec:	dec00104 	addi	sp,sp,4
 80010f0:	f800283a 	ret

080010f4 <kann_feed_dim>:

int kann_feed_dim(const kann_t *a, uint32_t ext_flag, int32_t ext_label)
{
 80010f4:	f811883a 	mov	r8,ra
 80010f8:	802e3940 	call	802e394 <_mcount>
 80010fc:	403f883a 	mov	ra,r8
 8001100:	defff804 	addi	sp,sp,-32
 8001104:	dfc00715 	stw	ra,28(sp)
 8001108:	df000615 	stw	fp,24(sp)
 800110c:	df000604 	addi	fp,sp,24
 8001110:	e13ffd15 	stw	r4,-12(fp)
 8001114:	e17ffe15 	stw	r5,-8(fp)
 8001118:	e1bfff15 	stw	r6,-4(fp)
	int i, k, n = 0;
 800111c:	e03ffc15 	stw	zero,-16(fp)
	for (i = k = 0; i < a->n; ++i)
 8001120:	e03ffb15 	stw	zero,-20(fp)
 8001124:	e0bffb17 	ldw	r2,-20(fp)
 8001128:	e0bffa15 	stw	r2,-24(fp)
 800112c:	00007406 	br	8001300 <kann_feed_dim+0x20c>
		if (kad_is_feed(a->v[i]) && chk_flg(a->v[i]->ext_flag, ext_flag) && chk_lbl(a->v[i]->ext_label, ext_label))
 8001130:	e0bffd17 	ldw	r2,-12(fp)
 8001134:	10c00117 	ldw	r3,4(r2)
 8001138:	e0bffa17 	ldw	r2,-24(fp)
 800113c:	1085883a 	add	r2,r2,r2
 8001140:	1085883a 	add	r2,r2,r2
 8001144:	1885883a 	add	r2,r3,r2
 8001148:	10800017 	ldw	r2,0(r2)
 800114c:	10800117 	ldw	r2,4(r2)
 8001150:	1000681e 	bne	r2,zero,80012f4 <kann_feed_dim+0x200>
 8001154:	e0bffd17 	ldw	r2,-12(fp)
 8001158:	10c00117 	ldw	r3,4(r2)
 800115c:	e0bffa17 	ldw	r2,-24(fp)
 8001160:	1085883a 	add	r2,r2,r2
 8001164:	1085883a 	add	r2,r2,r2
 8001168:	1885883a 	add	r2,r3,r2
 800116c:	10800017 	ldw	r2,0(r2)
 8001170:	10800043 	ldbu	r2,1(r2)
 8001174:	10803fcc 	andi	r2,r2,255
 8001178:	1080004c 	andi	r2,r2,1
 800117c:	10005d1e 	bne	r2,zero,80012f4 <kann_feed_dim+0x200>
 8001180:	e0bffd17 	ldw	r2,-12(fp)
 8001184:	10c00117 	ldw	r3,4(r2)
 8001188:	e0bffa17 	ldw	r2,-24(fp)
 800118c:	1085883a 	add	r2,r2,r2
 8001190:	1085883a 	add	r2,r2,r2
 8001194:	1885883a 	add	r2,r3,r2
 8001198:	10800017 	ldw	r2,0(r2)
 800119c:	10800043 	ldbu	r2,1(r2)
 80011a0:	10803fcc 	andi	r2,r2,255
 80011a4:	1080008c 	andi	r2,r2,2
 80011a8:	1000521e 	bne	r2,zero,80012f4 <kann_feed_dim+0x200>
 80011ac:	e0bffe17 	ldw	r2,-8(fp)
 80011b0:	10000b26 	beq	r2,zero,80011e0 <kann_feed_dim+0xec>
 80011b4:	e0bffd17 	ldw	r2,-12(fp)
 80011b8:	10c00117 	ldw	r3,4(r2)
 80011bc:	e0bffa17 	ldw	r2,-24(fp)
 80011c0:	1085883a 	add	r2,r2,r2
 80011c4:	1085883a 	add	r2,r2,r2
 80011c8:	1885883a 	add	r2,r3,r2
 80011cc:	10800017 	ldw	r2,0(r2)
 80011d0:	10c00917 	ldw	r3,36(r2)
 80011d4:	e0bffe17 	ldw	r2,-8(fp)
 80011d8:	1884703a 	and	r2,r3,r2
 80011dc:	10004526 	beq	r2,zero,80012f4 <kann_feed_dim+0x200>
 80011e0:	e0bfff17 	ldw	r2,-4(fp)
 80011e4:	10000a26 	beq	r2,zero,8001210 <kann_feed_dim+0x11c>
 80011e8:	e0bffd17 	ldw	r2,-12(fp)
 80011ec:	10c00117 	ldw	r3,4(r2)
 80011f0:	e0bffa17 	ldw	r2,-24(fp)
 80011f4:	1085883a 	add	r2,r2,r2
 80011f8:	1085883a 	add	r2,r2,r2
 80011fc:	1885883a 	add	r2,r3,r2
 8001200:	10800017 	ldw	r2,0(r2)
 8001204:	10c00817 	ldw	r3,32(r2)
 8001208:	e0bfff17 	ldw	r2,-4(fp)
 800120c:	1880391e 	bne	r3,r2,80012f4 <kann_feed_dim+0x200>
			++k, n = a->v[i]->n_d > 1? kad_len(a->v[i]) / a->v[i]->d[0] : a->v[i]->n_d == 1? a->v[i]->d[0] : 1;
 8001210:	e0bffb17 	ldw	r2,-20(fp)
 8001214:	10800044 	addi	r2,r2,1
 8001218:	e0bffb15 	stw	r2,-20(fp)
 800121c:	e0bffd17 	ldw	r2,-12(fp)
 8001220:	10c00117 	ldw	r3,4(r2)
 8001224:	e0bffa17 	ldw	r2,-24(fp)
 8001228:	1085883a 	add	r2,r2,r2
 800122c:	1085883a 	add	r2,r2,r2
 8001230:	1885883a 	add	r2,r3,r2
 8001234:	10800017 	ldw	r2,0(r2)
 8001238:	10800003 	ldbu	r2,0(r2)
 800123c:	10803fcc 	andi	r2,r2,255
 8001240:	108000b0 	cmpltui	r2,r2,2
 8001244:	1000151e 	bne	r2,zero,800129c <kann_feed_dim+0x1a8>
 8001248:	e0bffd17 	ldw	r2,-12(fp)
 800124c:	10c00117 	ldw	r3,4(r2)
 8001250:	e0bffa17 	ldw	r2,-24(fp)
 8001254:	1085883a 	add	r2,r2,r2
 8001258:	1085883a 	add	r2,r2,r2
 800125c:	1885883a 	add	r2,r3,r2
 8001260:	10800017 	ldw	r2,0(r2)
 8001264:	1009883a 	mov	r4,r2
 8001268:	80002180 	call	8000218 <kad_len>
 800126c:	1009883a 	mov	r4,r2
 8001270:	e0bffd17 	ldw	r2,-12(fp)
 8001274:	10c00117 	ldw	r3,4(r2)
 8001278:	e0bffa17 	ldw	r2,-24(fp)
 800127c:	1085883a 	add	r2,r2,r2
 8001280:	1085883a 	add	r2,r2,r2
 8001284:	1885883a 	add	r2,r3,r2
 8001288:	10800017 	ldw	r2,0(r2)
 800128c:	10800417 	ldw	r2,16(r2)
 8001290:	100b883a 	mov	r5,r2
 8001294:	801b4400 	call	801b440 <__divsi3>
 8001298:	00001506 	br	80012f0 <kann_feed_dim+0x1fc>
 800129c:	e0bffd17 	ldw	r2,-12(fp)
 80012a0:	10c00117 	ldw	r3,4(r2)
 80012a4:	e0bffa17 	ldw	r2,-24(fp)
 80012a8:	1085883a 	add	r2,r2,r2
 80012ac:	1085883a 	add	r2,r2,r2
 80012b0:	1885883a 	add	r2,r3,r2
 80012b4:	10800017 	ldw	r2,0(r2)
 80012b8:	10800003 	ldbu	r2,0(r2)
 80012bc:	10803fcc 	andi	r2,r2,255
 80012c0:	10800058 	cmpnei	r2,r2,1
 80012c4:	1000091e 	bne	r2,zero,80012ec <kann_feed_dim+0x1f8>
 80012c8:	e0bffd17 	ldw	r2,-12(fp)
 80012cc:	10c00117 	ldw	r3,4(r2)
 80012d0:	e0bffa17 	ldw	r2,-24(fp)
 80012d4:	1085883a 	add	r2,r2,r2
 80012d8:	1085883a 	add	r2,r2,r2
 80012dc:	1885883a 	add	r2,r3,r2
 80012e0:	10800017 	ldw	r2,0(r2)
 80012e4:	10800417 	ldw	r2,16(r2)
 80012e8:	00000106 	br	80012f0 <kann_feed_dim+0x1fc>
 80012ec:	00800044 	movi	r2,1
 80012f0:	e0bffc15 	stw	r2,-16(fp)
}

int kann_feed_dim(const kann_t *a, uint32_t ext_flag, int32_t ext_label)
{
	int i, k, n = 0;
	for (i = k = 0; i < a->n; ++i)
 80012f4:	e0bffa17 	ldw	r2,-24(fp)
 80012f8:	10800044 	addi	r2,r2,1
 80012fc:	e0bffa15 	stw	r2,-24(fp)
 8001300:	e0bffd17 	ldw	r2,-12(fp)
 8001304:	10800017 	ldw	r2,0(r2)
 8001308:	e0fffa17 	ldw	r3,-24(fp)
 800130c:	18bf8816 	blt	r3,r2,8001130 <kann_feed_dim+0x3c>
		if (kad_is_feed(a->v[i]) && chk_flg(a->v[i]->ext_flag, ext_flag) && chk_lbl(a->v[i]->ext_label, ext_label))
			++k, n = a->v[i]->n_d > 1? kad_len(a->v[i]) / a->v[i]->d[0] : a->v[i]->n_d == 1? a->v[i]->d[0] : 1;
	return k == 1? n : k == 0? -1 : -2;
 8001310:	e0bffb17 	ldw	r2,-20(fp)
 8001314:	10800060 	cmpeqi	r2,r2,1
 8001318:	1000061e 	bne	r2,zero,8001334 <kann_feed_dim+0x240>
 800131c:	e0bffb17 	ldw	r2,-20(fp)
 8001320:	1000021e 	bne	r2,zero,800132c <kann_feed_dim+0x238>
 8001324:	00bfffc4 	movi	r2,-1
 8001328:	00000306 	br	8001338 <kann_feed_dim+0x244>
 800132c:	00bfff84 	movi	r2,-2
 8001330:	00000106 	br	8001338 <kann_feed_dim+0x244>
 8001334:	e0bffc17 	ldw	r2,-16(fp)
}
 8001338:	e037883a 	mov	sp,fp
 800133c:	dfc00117 	ldw	ra,4(sp)
 8001340:	df000017 	ldw	fp,0(sp)
 8001344:	dec00204 	addi	sp,sp,8
 8001348:	f800283a 	ret

0800134c <kann_cost_core>:

static float kann_cost_core(kann_t *a, int cost_label, int cal_grad)
{
 800134c:	f811883a 	mov	r8,ra
 8001350:	802e3940 	call	802e394 <_mcount>
 8001354:	403f883a 	mov	ra,r8
 8001358:	defff904 	addi	sp,sp,-28
 800135c:	dfc00615 	stw	ra,24(sp)
 8001360:	df000515 	stw	fp,20(sp)
 8001364:	df000504 	addi	fp,sp,20
 8001368:	e13ffd15 	stw	r4,-12(fp)
 800136c:	e17ffe15 	stw	r5,-8(fp)
 8001370:	e1bfff15 	stw	r6,-4(fp)
	int i_cost;
	float cost;
	i_cost = kann_find(a, KANN_F_COST, cost_label);
 8001374:	e1bffe17 	ldw	r6,-8(fp)
 8001378:	01400204 	movi	r5,8
 800137c:	e13ffd17 	ldw	r4,-12(fp)
 8001380:	8000e500 	call	8000e50 <kann_find>
 8001384:	e0bffb15 	stw	r2,-20(fp)
	assert(i_cost >= 0);
 8001388:	e0bffb17 	ldw	r2,-20(fp)
 800138c:	1000080e 	bge	r2,zero,80013b0 <kann_cost_core+0x64>
 8001390:	01c200f4 	movhi	r7,2051
 8001394:	39d47e04 	addi	r7,r7,20984
 8001398:	018200f4 	movhi	r6,2051
 800139c:	3194be04 	addi	r6,r6,21240
 80013a0:	01402f04 	movi	r5,188
 80013a4:	010200f4 	movhi	r4,2051
 80013a8:	21148104 	addi	r4,r4,20996
 80013ac:	801f5240 	call	801f524 <__assert_func>
	cost = *kad_eval_at(a->n, a->v, i_cost);
 80013b0:	e0bffd17 	ldw	r2,-12(fp)
 80013b4:	10c00017 	ldw	r3,0(r2)
 80013b8:	e0bffd17 	ldw	r2,-12(fp)
 80013bc:	10800117 	ldw	r2,4(r2)
 80013c0:	e1bffb17 	ldw	r6,-20(fp)
 80013c4:	100b883a 	mov	r5,r2
 80013c8:	1809883a 	mov	r4,r3
 80013cc:	80082240 	call	8008224 <kad_eval_at>
 80013d0:	10800017 	ldw	r2,0(r2)
 80013d4:	e0bffc15 	stw	r2,-16(fp)
	if (cal_grad) kad_grad(a->n, a->v, i_cost);
 80013d8:	e0bfff17 	ldw	r2,-4(fp)
 80013dc:	10000826 	beq	r2,zero,8001400 <kann_cost_core+0xb4>
 80013e0:	e0bffd17 	ldw	r2,-12(fp)
 80013e4:	10c00017 	ldw	r3,0(r2)
 80013e8:	e0bffd17 	ldw	r2,-12(fp)
 80013ec:	10800117 	ldw	r2,4(r2)
 80013f0:	e1bffb17 	ldw	r6,-20(fp)
 80013f4:	100b883a 	mov	r5,r2
 80013f8:	1809883a 	mov	r4,r3
 80013fc:	80082fc0 	call	80082fc <kad_grad>
	return cost;
 8001400:	e0bffc17 	ldw	r2,-16(fp)
 8001404:	1007883a 	mov	r3,r2
}
 8001408:	1805883a 	mov	r2,r3
 800140c:	e037883a 	mov	sp,fp
 8001410:	dfc00117 	ldw	ra,4(sp)
 8001414:	df000017 	ldw	fp,0(sp)
 8001418:	dec00204 	addi	sp,sp,8
 800141c:	f800283a 	ret

08001420 <kann_eval>:

int kann_eval(kann_t *a, uint32_t ext_flag, int ext_label)
{
 8001420:	f811883a 	mov	r8,ra
 8001424:	802e3940 	call	802e394 <_mcount>
 8001428:	403f883a 	mov	ra,r8
 800142c:	defff904 	addi	sp,sp,-28
 8001430:	dfc00615 	stw	ra,24(sp)
 8001434:	df000515 	stw	fp,20(sp)
 8001438:	df000504 	addi	fp,sp,20
 800143c:	e13ffd15 	stw	r4,-12(fp)
 8001440:	e17ffe15 	stw	r5,-8(fp)
 8001444:	e1bfff15 	stw	r6,-4(fp)
	int i, k;
	for (i = k = 0; i < a->n; ++i)
 8001448:	e03ffc15 	stw	zero,-16(fp)
 800144c:	e0bffc17 	ldw	r2,-16(fp)
 8001450:	e0bffb15 	stw	r2,-20(fp)
 8001454:	00002806 	br	80014f8 <kann_eval+0xd8>
		if (chk_flg(a->v[i]->ext_flag, ext_flag) && chk_lbl(a->v[i]->ext_label, ext_label))
 8001458:	e0bffe17 	ldw	r2,-8(fp)
 800145c:	10000b26 	beq	r2,zero,800148c <kann_eval+0x6c>
 8001460:	e0bffd17 	ldw	r2,-12(fp)
 8001464:	10c00117 	ldw	r3,4(r2)
 8001468:	e0bffb17 	ldw	r2,-20(fp)
 800146c:	1085883a 	add	r2,r2,r2
 8001470:	1085883a 	add	r2,r2,r2
 8001474:	1885883a 	add	r2,r3,r2
 8001478:	10800017 	ldw	r2,0(r2)
 800147c:	10c00917 	ldw	r3,36(r2)
 8001480:	e0bffe17 	ldw	r2,-8(fp)
 8001484:	1884703a 	and	r2,r3,r2
 8001488:	10001826 	beq	r2,zero,80014ec <kann_eval+0xcc>
 800148c:	e0bfff17 	ldw	r2,-4(fp)
 8001490:	10000a26 	beq	r2,zero,80014bc <kann_eval+0x9c>
 8001494:	e0bffd17 	ldw	r2,-12(fp)
 8001498:	10c00117 	ldw	r3,4(r2)
 800149c:	e0bffb17 	ldw	r2,-20(fp)
 80014a0:	1085883a 	add	r2,r2,r2
 80014a4:	1085883a 	add	r2,r2,r2
 80014a8:	1885883a 	add	r2,r3,r2
 80014ac:	10800017 	ldw	r2,0(r2)
 80014b0:	10c00817 	ldw	r3,32(r2)
 80014b4:	e0bfff17 	ldw	r2,-4(fp)
 80014b8:	18800c1e 	bne	r3,r2,80014ec <kann_eval+0xcc>
			++k, a->v[i]->tmp = 1;
 80014bc:	e0bffc17 	ldw	r2,-16(fp)
 80014c0:	10800044 	addi	r2,r2,1
 80014c4:	e0bffc15 	stw	r2,-16(fp)
 80014c8:	e0bffd17 	ldw	r2,-12(fp)
 80014cc:	10c00117 	ldw	r3,4(r2)
 80014d0:	e0bffb17 	ldw	r2,-20(fp)
 80014d4:	1085883a 	add	r2,r2,r2
 80014d8:	1085883a 	add	r2,r2,r2
 80014dc:	1885883a 	add	r2,r3,r2
 80014e0:	10800017 	ldw	r2,0(r2)
 80014e4:	00c00044 	movi	r3,1
 80014e8:	10c00215 	stw	r3,8(r2)
}

int kann_eval(kann_t *a, uint32_t ext_flag, int ext_label)
{
	int i, k;
	for (i = k = 0; i < a->n; ++i)
 80014ec:	e0bffb17 	ldw	r2,-20(fp)
 80014f0:	10800044 	addi	r2,r2,1
 80014f4:	e0bffb15 	stw	r2,-20(fp)
 80014f8:	e0bffd17 	ldw	r2,-12(fp)
 80014fc:	10800017 	ldw	r2,0(r2)
 8001500:	e0fffb17 	ldw	r3,-20(fp)
 8001504:	18bfd416 	blt	r3,r2,8001458 <kann_eval+0x38>
		if (chk_flg(a->v[i]->ext_flag, ext_flag) && chk_lbl(a->v[i]->ext_label, ext_label))
			++k, a->v[i]->tmp = 1;
	kad_eval_marked(a->n, a->v);
 8001508:	e0bffd17 	ldw	r2,-12(fp)
 800150c:	10c00017 	ldw	r3,0(r2)
 8001510:	e0bffd17 	ldw	r2,-12(fp)
 8001514:	10800117 	ldw	r2,4(r2)
 8001518:	100b883a 	mov	r5,r2
 800151c:	1809883a 	mov	r4,r3
 8001520:	80080d00 	call	80080d0 <kad_eval_marked>
	return k;
 8001524:	e0bffc17 	ldw	r2,-16(fp)
}
 8001528:	e037883a 	mov	sp,fp
 800152c:	dfc00117 	ldw	ra,4(sp)
 8001530:	df000017 	ldw	fp,0(sp)
 8001534:	dec00204 	addi	sp,sp,8
 8001538:	f800283a 	ret

0800153c <kann_rnn_start>:

void kann_rnn_start(kann_t *a)
{
 800153c:	f811883a 	mov	r8,ra
 8001540:	802e3940 	call	802e394 <_mcount>
 8001544:	403f883a 	mov	ra,r8
 8001548:	defff804 	addi	sp,sp,-32
 800154c:	dfc00715 	stw	ra,28(sp)
 8001550:	df000615 	stw	fp,24(sp)
 8001554:	dc400515 	stw	r17,20(sp)
 8001558:	dc000415 	stw	r16,16(sp)
 800155c:	df000604 	addi	fp,sp,24
 8001560:	e13ffd15 	stw	r4,-12(fp)
	int i;
	kann_set_batch_size(a, 1);
 8001564:	e0bffd17 	ldw	r2,-12(fp)
 8001568:	10c00017 	ldw	r3,0(r2)
 800156c:	e0bffd17 	ldw	r2,-12(fp)
 8001570:	10800117 	ldw	r2,4(r2)
 8001574:	01800044 	movi	r6,1
 8001578:	100b883a 	mov	r5,r2
 800157c:	1809883a 	mov	r4,r3
 8001580:	80073100 	call	8007310 <kad_sync_dim>
	for (i = 0; i < a->n; ++i) {
 8001584:	e03ffa15 	stw	zero,-24(fp)
 8001588:	00003606 	br	8001664 <kann_rnn_start+0x128>
		kad_node_t *p = a->v[i];
 800158c:	e0bffd17 	ldw	r2,-12(fp)
 8001590:	10c00117 	ldw	r3,4(r2)
 8001594:	e0bffa17 	ldw	r2,-24(fp)
 8001598:	1085883a 	add	r2,r2,r2
 800159c:	1085883a 	add	r2,r2,r2
 80015a0:	1885883a 	add	r2,r3,r2
 80015a4:	10800017 	ldw	r2,0(r2)
 80015a8:	e0bffb15 	stw	r2,-20(fp)
		if (p->pre) { /* NB: BE CAREFUL of the interaction between kann_rnn_start() and kann_set_batch_size() */
 80015ac:	e0bffb17 	ldw	r2,-20(fp)
 80015b0:	10800f17 	ldw	r2,60(r2)
 80015b4:	10002826 	beq	r2,zero,8001658 <kann_rnn_start+0x11c>
			kad_node_t *q = p->pre;
 80015b8:	e0bffb17 	ldw	r2,-20(fp)
 80015bc:	10800f17 	ldw	r2,60(r2)
 80015c0:	e0bffc15 	stw	r2,-16(fp)
			if (q->x) memcpy(p->x, q->x, kad_len(p) * sizeof(float));
 80015c4:	e0bffc17 	ldw	r2,-16(fp)
 80015c8:	10800a17 	ldw	r2,40(r2)
 80015cc:	10000d26 	beq	r2,zero,8001604 <kann_rnn_start+0xc8>
 80015d0:	e0bffb17 	ldw	r2,-20(fp)
 80015d4:	14000a17 	ldw	r16,40(r2)
 80015d8:	e0bffc17 	ldw	r2,-16(fp)
 80015dc:	14400a17 	ldw	r17,40(r2)
 80015e0:	e13ffb17 	ldw	r4,-20(fp)
 80015e4:	80002180 	call	8000218 <kad_len>
 80015e8:	1085883a 	add	r2,r2,r2
 80015ec:	1085883a 	add	r2,r2,r2
 80015f0:	100d883a 	mov	r6,r2
 80015f4:	880b883a 	mov	r5,r17
 80015f8:	8009883a 	mov	r4,r16
 80015fc:	80223140 	call	8022314 <memcpy>
 8001600:	00000a06 	br	800162c <kann_rnn_start+0xf0>
			else memset(p->x, 0, kad_len(p) * sizeof(float));
 8001604:	e0bffb17 	ldw	r2,-20(fp)
 8001608:	14000a17 	ldw	r16,40(r2)
 800160c:	e13ffb17 	ldw	r4,-20(fp)
 8001610:	80002180 	call	8000218 <kad_len>
 8001614:	1085883a 	add	r2,r2,r2
 8001618:	1085883a 	add	r2,r2,r2
 800161c:	100d883a 	mov	r6,r2
 8001620:	000b883a 	mov	r5,zero
 8001624:	8009883a 	mov	r4,r16
 8001628:	80225cc0 	call	80225cc <memset>
			if (q->n_child > 0) free(q->x);
 800162c:	e0bffc17 	ldw	r2,-16(fp)
 8001630:	10800117 	ldw	r2,4(r2)
 8001634:	0080040e 	bge	zero,r2,8001648 <kann_rnn_start+0x10c>
 8001638:	e0bffc17 	ldw	r2,-16(fp)
 800163c:	10800a17 	ldw	r2,40(r2)
 8001640:	1009883a 	mov	r4,r2
 8001644:	80219ec0 	call	80219ec <free>
			q->x = p->x;
 8001648:	e0bffb17 	ldw	r2,-20(fp)
 800164c:	10c00a17 	ldw	r3,40(r2)
 8001650:	e0bffc17 	ldw	r2,-16(fp)
 8001654:	10c00a15 	stw	r3,40(r2)

void kann_rnn_start(kann_t *a)
{
	int i;
	kann_set_batch_size(a, 1);
	for (i = 0; i < a->n; ++i) {
 8001658:	e0bffa17 	ldw	r2,-24(fp)
 800165c:	10800044 	addi	r2,r2,1
 8001660:	e0bffa15 	stw	r2,-24(fp)
 8001664:	e0bffd17 	ldw	r2,-12(fp)
 8001668:	10800017 	ldw	r2,0(r2)
 800166c:	e0fffa17 	ldw	r3,-24(fp)
 8001670:	18bfc616 	blt	r3,r2,800158c <kann_rnn_start+0x50>
			else memset(p->x, 0, kad_len(p) * sizeof(float));
			if (q->n_child > 0) free(q->x);
			q->x = p->x;
		}
	}
}
 8001674:	0001883a 	nop
 8001678:	e6fffe04 	addi	sp,fp,-8
 800167c:	dfc00317 	ldw	ra,12(sp)
 8001680:	df000217 	ldw	fp,8(sp)
 8001684:	dc400117 	ldw	r17,4(sp)
 8001688:	dc000017 	ldw	r16,0(sp)
 800168c:	dec00404 	addi	sp,sp,16
 8001690:	f800283a 	ret

08001694 <kann_rnn_end>:

void kann_rnn_end(kann_t *a)
{
 8001694:	f811883a 	mov	r8,ra
 8001698:	802e3940 	call	802e394 <_mcount>
 800169c:	403f883a 	mov	ra,r8
 80016a0:	defffa04 	addi	sp,sp,-24
 80016a4:	dfc00515 	stw	ra,20(sp)
 80016a8:	df000415 	stw	fp,16(sp)
 80016ac:	dc000315 	stw	r16,12(sp)
 80016b0:	df000404 	addi	fp,sp,16
 80016b4:	e13ffe15 	stw	r4,-8(fp)
	int i;
	kad_ext_sync(a->n, a->v, a->x, a->g, a->c);
 80016b8:	e0bffe17 	ldw	r2,-8(fp)
 80016bc:	10c00017 	ldw	r3,0(r2)
 80016c0:	e0bffe17 	ldw	r2,-8(fp)
 80016c4:	11000117 	ldw	r4,4(r2)
 80016c8:	e0bffe17 	ldw	r2,-8(fp)
 80016cc:	11400217 	ldw	r5,8(r2)
 80016d0:	e0bffe17 	ldw	r2,-8(fp)
 80016d4:	11800317 	ldw	r6,12(r2)
 80016d8:	e0bffe17 	ldw	r2,-8(fp)
 80016dc:	10800417 	ldw	r2,16(r2)
 80016e0:	d8800015 	stw	r2,0(sp)
 80016e4:	300f883a 	mov	r7,r6
 80016e8:	280d883a 	mov	r6,r5
 80016ec:	200b883a 	mov	r5,r4
 80016f0:	1809883a 	mov	r4,r3
 80016f4:	800058c0 	call	800058c <kad_ext_sync>
	for (i = 0; i < a->n; ++i)
 80016f8:	e03ffd15 	stw	zero,-12(fp)
 80016fc:	00002c06 	br	80017b0 <kann_rnn_end+0x11c>
		if (a->v[i]->pre && a->v[i]->pre->n_child > 0)
 8001700:	e0bffe17 	ldw	r2,-8(fp)
 8001704:	10c00117 	ldw	r3,4(r2)
 8001708:	e0bffd17 	ldw	r2,-12(fp)
 800170c:	1085883a 	add	r2,r2,r2
 8001710:	1085883a 	add	r2,r2,r2
 8001714:	1885883a 	add	r2,r3,r2
 8001718:	10800017 	ldw	r2,0(r2)
 800171c:	10800f17 	ldw	r2,60(r2)
 8001720:	10002026 	beq	r2,zero,80017a4 <kann_rnn_end+0x110>
 8001724:	e0bffe17 	ldw	r2,-8(fp)
 8001728:	10c00117 	ldw	r3,4(r2)
 800172c:	e0bffd17 	ldw	r2,-12(fp)
 8001730:	1085883a 	add	r2,r2,r2
 8001734:	1085883a 	add	r2,r2,r2
 8001738:	1885883a 	add	r2,r3,r2
 800173c:	10800017 	ldw	r2,0(r2)
 8001740:	10800f17 	ldw	r2,60(r2)
 8001744:	10800117 	ldw	r2,4(r2)
 8001748:	0080160e 	bge	zero,r2,80017a4 <kann_rnn_end+0x110>
			a->v[i]->pre->x = (float*)calloc(kad_len(a->v[i]->pre), sizeof(float));
 800174c:	e0bffe17 	ldw	r2,-8(fp)
 8001750:	10c00117 	ldw	r3,4(r2)
 8001754:	e0bffd17 	ldw	r2,-12(fp)
 8001758:	1085883a 	add	r2,r2,r2
 800175c:	1085883a 	add	r2,r2,r2
 8001760:	1885883a 	add	r2,r3,r2
 8001764:	10800017 	ldw	r2,0(r2)
 8001768:	14000f17 	ldw	r16,60(r2)
 800176c:	e0bffe17 	ldw	r2,-8(fp)
 8001770:	10c00117 	ldw	r3,4(r2)
 8001774:	e0bffd17 	ldw	r2,-12(fp)
 8001778:	1085883a 	add	r2,r2,r2
 800177c:	1085883a 	add	r2,r2,r2
 8001780:	1885883a 	add	r2,r3,r2
 8001784:	10800017 	ldw	r2,0(r2)
 8001788:	10800f17 	ldw	r2,60(r2)
 800178c:	1009883a 	mov	r4,r2
 8001790:	80002180 	call	8000218 <kad_len>
 8001794:	01400104 	movi	r5,4
 8001798:	1009883a 	mov	r4,r2
 800179c:	801f5b80 	call	801f5b8 <calloc>
 80017a0:	80800a15 	stw	r2,40(r16)

void kann_rnn_end(kann_t *a)
{
	int i;
	kad_ext_sync(a->n, a->v, a->x, a->g, a->c);
	for (i = 0; i < a->n; ++i)
 80017a4:	e0bffd17 	ldw	r2,-12(fp)
 80017a8:	10800044 	addi	r2,r2,1
 80017ac:	e0bffd15 	stw	r2,-12(fp)
 80017b0:	e0bffe17 	ldw	r2,-8(fp)
 80017b4:	10800017 	ldw	r2,0(r2)
 80017b8:	e0fffd17 	ldw	r3,-12(fp)
 80017bc:	18bfd016 	blt	r3,r2,8001700 <kann_rnn_end+0x6c>
		if (a->v[i]->pre && a->v[i]->pre->n_child > 0)
			a->v[i]->pre->x = (float*)calloc(kad_len(a->v[i]->pre), sizeof(float));
}
 80017c0:	0001883a 	nop
 80017c4:	e6ffff04 	addi	sp,fp,-4
 80017c8:	dfc00217 	ldw	ra,8(sp)
 80017cc:	df000117 	ldw	fp,4(sp)
 80017d0:	dc000017 	ldw	r16,0(sp)
 80017d4:	dec00304 	addi	sp,sp,12
 80017d8:	f800283a 	ret

080017dc <kann_class_error_core>:

static int kann_class_error_core(const kann_t *ann, int *base)
{
 80017dc:	f811883a 	mov	r8,ra
 80017e0:	802e3940 	call	802e394 <_mcount>
 80017e4:	403f883a 	mov	ra,r8
 80017e8:	deffe904 	addi	sp,sp,-92
 80017ec:	dfc01615 	stw	ra,88(sp)
 80017f0:	df001515 	stw	fp,84(sp)
 80017f4:	df001504 	addi	fp,sp,84
 80017f8:	e13ffe15 	stw	r4,-8(fp)
 80017fc:	e17fff15 	stw	r5,-4(fp)
	int i, j, k, m, n, off, n_err = 0;
 8001800:	e03fef15 	stw	zero,-68(fp)
	for (i = 0, *base = 0; i < ann->n; ++i) {
 8001804:	e03feb15 	stw	zero,-84(fp)
 8001808:	e0bfff17 	ldw	r2,-4(fp)
 800180c:	10000015 	stw	zero,0(r2)
 8001810:	0000b106 	br	8001ad8 <kann_class_error_core+0x2fc>
		kad_node_t *p = ann->v[i];
 8001814:	e0bffe17 	ldw	r2,-8(fp)
 8001818:	10c00117 	ldw	r3,4(r2)
 800181c:	e0bfeb17 	ldw	r2,-84(fp)
 8001820:	1085883a 	add	r2,r2,r2
 8001824:	1085883a 	add	r2,r2,r2
 8001828:	1885883a 	add	r2,r3,r2
 800182c:	10800017 	ldw	r2,0(r2)
 8001830:	e0bff715 	stw	r2,-36(fp)
		if ((p->op == 13 || p->op == 22) && p->n_child == 2 && p->n_d == 0) { /* ce_bin or ce_multi */
 8001834:	e0bff717 	ldw	r2,-36(fp)
 8001838:	1080008b 	ldhu	r2,2(r2)
 800183c:	10bfffcc 	andi	r2,r2,65535
 8001840:	10800360 	cmpeqi	r2,r2,13
 8001844:	1000051e 	bne	r2,zero,800185c <kann_class_error_core+0x80>
 8001848:	e0bff717 	ldw	r2,-36(fp)
 800184c:	1080008b 	ldhu	r2,2(r2)
 8001850:	10bfffcc 	andi	r2,r2,65535
 8001854:	10800598 	cmpnei	r2,r2,22
 8001858:	10009c1e 	bne	r2,zero,8001acc <kann_class_error_core+0x2f0>
 800185c:	e0bff717 	ldw	r2,-36(fp)
 8001860:	10800117 	ldw	r2,4(r2)
 8001864:	10800098 	cmpnei	r2,r2,2
 8001868:	1000981e 	bne	r2,zero,8001acc <kann_class_error_core+0x2f0>
 800186c:	e0bff717 	ldw	r2,-36(fp)
 8001870:	10800003 	ldbu	r2,0(r2)
 8001874:	10803fcc 	andi	r2,r2,255
 8001878:	1000941e 	bne	r2,zero,8001acc <kann_class_error_core+0x2f0>
			kad_node_t *x = p->child[0], *t = p->child[1];
 800187c:	e0bff717 	ldw	r2,-36(fp)
 8001880:	10800e17 	ldw	r2,56(r2)
 8001884:	10800017 	ldw	r2,0(r2)
 8001888:	e0bff815 	stw	r2,-32(fp)
 800188c:	e0bff717 	ldw	r2,-36(fp)
 8001890:	10800e17 	ldw	r2,56(r2)
 8001894:	10800117 	ldw	r2,4(r2)
 8001898:	e0bff915 	stw	r2,-28(fp)
			n = t->d[t->n_d - 1], m = kad_len(t) / n;
 800189c:	e0bff917 	ldw	r2,-28(fp)
 80018a0:	10800003 	ldbu	r2,0(r2)
 80018a4:	10803fcc 	andi	r2,r2,255
 80018a8:	10bfffc4 	addi	r2,r2,-1
 80018ac:	e0fff917 	ldw	r3,-28(fp)
 80018b0:	10800104 	addi	r2,r2,4
 80018b4:	1085883a 	add	r2,r2,r2
 80018b8:	1085883a 	add	r2,r2,r2
 80018bc:	1885883a 	add	r2,r3,r2
 80018c0:	10800017 	ldw	r2,0(r2)
 80018c4:	e0bffa15 	stw	r2,-24(fp)
 80018c8:	e13ff917 	ldw	r4,-28(fp)
 80018cc:	80002180 	call	8000218 <kad_len>
 80018d0:	e17ffa17 	ldw	r5,-24(fp)
 80018d4:	1009883a 	mov	r4,r2
 80018d8:	801b4400 	call	801b440 <__divsi3>
 80018dc:	e0bffb15 	stw	r2,-20(fp)
			for (j = off = 0; j < m; ++j, off += n) {
 80018e0:	e03fee15 	stw	zero,-72(fp)
 80018e4:	e0bfee17 	ldw	r2,-72(fp)
 80018e8:	e0bfec15 	stw	r2,-80(fp)
 80018ec:	00007406 	br	8001ac0 <kann_class_error_core+0x2e4>
				float t_sum = 0.0f, t_min = 1.0f, t_max = 0.0f, x_max = 0.0f, x_min = 1.0f;
 80018f0:	e03ff015 	stw	zero,-64(fp)
 80018f4:	008fe034 	movhi	r2,16256
 80018f8:	e0bff115 	stw	r2,-60(fp)
 80018fc:	e03ff215 	stw	zero,-56(fp)
 8001900:	e03ff315 	stw	zero,-52(fp)
 8001904:	008fe034 	movhi	r2,16256
 8001908:	e0bff415 	stw	r2,-48(fp)
				int x_max_k = -1, t_max_k = -1;
 800190c:	00bfffc4 	movi	r2,-1
 8001910:	e0bff515 	stw	r2,-44(fp)
 8001914:	00bfffc4 	movi	r2,-1
 8001918:	e0bff615 	stw	r2,-40(fp)
				for (k = 0; k < n; ++k) {
 800191c:	e03fed15 	stw	zero,-76(fp)
 8001920:	00003c06 	br	8001a14 <kann_class_error_core+0x238>
					float xk = x->x[off+k], tk = t->x[off+k];
 8001924:	e0bff817 	ldw	r2,-32(fp)
 8001928:	10c00a17 	ldw	r3,40(r2)
 800192c:	e13fee17 	ldw	r4,-72(fp)
 8001930:	e0bfed17 	ldw	r2,-76(fp)
 8001934:	2085883a 	add	r2,r4,r2
 8001938:	1085883a 	add	r2,r2,r2
 800193c:	1085883a 	add	r2,r2,r2
 8001940:	1885883a 	add	r2,r3,r2
 8001944:	10800017 	ldw	r2,0(r2)
 8001948:	e0bffc15 	stw	r2,-16(fp)
 800194c:	e0bff917 	ldw	r2,-28(fp)
 8001950:	10c00a17 	ldw	r3,40(r2)
 8001954:	e13fee17 	ldw	r4,-72(fp)
 8001958:	e0bfed17 	ldw	r2,-76(fp)
 800195c:	2085883a 	add	r2,r4,r2
 8001960:	1085883a 	add	r2,r2,r2
 8001964:	1085883a 	add	r2,r2,r2
 8001968:	1885883a 	add	r2,r3,r2
 800196c:	10800017 	ldw	r2,0(r2)
 8001970:	e0bffd15 	stw	r2,-12(fp)
					t_sum += tk;
 8001974:	e17ffd17 	ldw	r5,-12(fp)
 8001978:	e13ff017 	ldw	r4,-64(fp)
 800197c:	801b6200 	call	801b620 <__addsf3>
 8001980:	1007883a 	mov	r3,r2
 8001984:	e0fff015 	stw	r3,-64(fp)
					t_min = t_min < tk? t_min : tk;
 8001988:	e17ffd17 	ldw	r5,-12(fp)
 800198c:	e13ff117 	ldw	r4,-60(fp)
 8001990:	801c0840 	call	801c084 <__lesf2>
 8001994:	1000020e 	bge	r2,zero,80019a0 <kann_class_error_core+0x1c4>
 8001998:	e0bff117 	ldw	r2,-60(fp)
 800199c:	00000106 	br	80019a4 <kann_class_error_core+0x1c8>
 80019a0:	e0bffd17 	ldw	r2,-12(fp)
 80019a4:	e0bff115 	stw	r2,-60(fp)
					x_min = x_min < xk? x_min : xk;
 80019a8:	e17ffc17 	ldw	r5,-16(fp)
 80019ac:	e13ff417 	ldw	r4,-48(fp)
 80019b0:	801c0840 	call	801c084 <__lesf2>
 80019b4:	1000020e 	bge	r2,zero,80019c0 <kann_class_error_core+0x1e4>
 80019b8:	e0bff417 	ldw	r2,-48(fp)
 80019bc:	00000106 	br	80019c4 <kann_class_error_core+0x1e8>
 80019c0:	e0bffc17 	ldw	r2,-16(fp)
 80019c4:	e0bff415 	stw	r2,-48(fp)
					if (t_max < tk) t_max = tk, t_max_k = k;
 80019c8:	e17ffd17 	ldw	r5,-12(fp)
 80019cc:	e13ff217 	ldw	r4,-56(fp)
 80019d0:	801c0840 	call	801c084 <__lesf2>
 80019d4:	1000040e 	bge	r2,zero,80019e8 <kann_class_error_core+0x20c>
 80019d8:	e0bffd17 	ldw	r2,-12(fp)
 80019dc:	e0bff215 	stw	r2,-56(fp)
 80019e0:	e0bfed17 	ldw	r2,-76(fp)
 80019e4:	e0bff615 	stw	r2,-40(fp)
					if (x_max < xk) x_max = xk, x_max_k = k;
 80019e8:	e17ffc17 	ldw	r5,-16(fp)
 80019ec:	e13ff317 	ldw	r4,-52(fp)
 80019f0:	801c0840 	call	801c084 <__lesf2>
 80019f4:	1000040e 	bge	r2,zero,8001a08 <kann_class_error_core+0x22c>
 80019f8:	e0bffc17 	ldw	r2,-16(fp)
 80019fc:	e0bff315 	stw	r2,-52(fp)
 8001a00:	e0bfed17 	ldw	r2,-76(fp)
 8001a04:	e0bff515 	stw	r2,-44(fp)
			kad_node_t *x = p->child[0], *t = p->child[1];
			n = t->d[t->n_d - 1], m = kad_len(t) / n;
			for (j = off = 0; j < m; ++j, off += n) {
				float t_sum = 0.0f, t_min = 1.0f, t_max = 0.0f, x_max = 0.0f, x_min = 1.0f;
				int x_max_k = -1, t_max_k = -1;
				for (k = 0; k < n; ++k) {
 8001a08:	e0bfed17 	ldw	r2,-76(fp)
 8001a0c:	10800044 	addi	r2,r2,1
 8001a10:	e0bfed15 	stw	r2,-76(fp)
 8001a14:	e0ffed17 	ldw	r3,-76(fp)
 8001a18:	e0bffa17 	ldw	r2,-24(fp)
 8001a1c:	18bfc116 	blt	r3,r2,8001924 <kann_class_error_core+0x148>
					t_min = t_min < tk? t_min : tk;
					x_min = x_min < xk? x_min : xk;
					if (t_max < tk) t_max = tk, t_max_k = k;
					if (x_max < xk) x_max = xk, x_max_k = k;
				}
				if (t_sum - 1.0f == 0 && t_min >= 0.0f && x_min >= 0.0f && x_max <= 1.0f) {
 8001a20:	014fe034 	movhi	r5,16256
 8001a24:	e13ff017 	ldw	r4,-64(fp)
 8001a28:	801c56c0 	call	801c56c <__subsf3>
 8001a2c:	1007883a 	mov	r3,r2
 8001a30:	1805883a 	mov	r2,r3
 8001a34:	000b883a 	mov	r5,zero
 8001a38:	1009883a 	mov	r4,r2
 8001a3c:	801bf400 	call	801bf40 <__eqsf2>
 8001a40:	1000181e 	bne	r2,zero,8001aa4 <kann_class_error_core+0x2c8>
 8001a44:	000b883a 	mov	r5,zero
 8001a48:	e13ff117 	ldw	r4,-60(fp)
 8001a4c:	801bfc00 	call	801bfc0 <__gesf2>
 8001a50:	10001416 	blt	r2,zero,8001aa4 <kann_class_error_core+0x2c8>
 8001a54:	000b883a 	mov	r5,zero
 8001a58:	e13ff417 	ldw	r4,-48(fp)
 8001a5c:	801bfc00 	call	801bfc0 <__gesf2>
 8001a60:	10001016 	blt	r2,zero,8001aa4 <kann_class_error_core+0x2c8>
 8001a64:	014fe034 	movhi	r5,16256
 8001a68:	e13ff317 	ldw	r4,-52(fp)
 8001a6c:	801c0840 	call	801c084 <__lesf2>
 8001a70:	00800c16 	blt	zero,r2,8001aa4 <kann_class_error_core+0x2c8>
					++(*base);
 8001a74:	e0bfff17 	ldw	r2,-4(fp)
 8001a78:	10800017 	ldw	r2,0(r2)
 8001a7c:	10c00044 	addi	r3,r2,1
 8001a80:	e0bfff17 	ldw	r2,-4(fp)
 8001a84:	10c00015 	stw	r3,0(r2)
					n_err += (x_max_k != t_max_k);
 8001a88:	e0fff517 	ldw	r3,-44(fp)
 8001a8c:	e0bff617 	ldw	r2,-40(fp)
 8001a90:	1884c03a 	cmpne	r2,r3,r2
 8001a94:	10803fcc 	andi	r2,r2,255
 8001a98:	e0ffef17 	ldw	r3,-68(fp)
 8001a9c:	1885883a 	add	r2,r3,r2
 8001aa0:	e0bfef15 	stw	r2,-68(fp)
	for (i = 0, *base = 0; i < ann->n; ++i) {
		kad_node_t *p = ann->v[i];
		if ((p->op == 13 || p->op == 22) && p->n_child == 2 && p->n_d == 0) { /* ce_bin or ce_multi */
			kad_node_t *x = p->child[0], *t = p->child[1];
			n = t->d[t->n_d - 1], m = kad_len(t) / n;
			for (j = off = 0; j < m; ++j, off += n) {
 8001aa4:	e0bfec17 	ldw	r2,-80(fp)
 8001aa8:	10800044 	addi	r2,r2,1
 8001aac:	e0bfec15 	stw	r2,-80(fp)
 8001ab0:	e0ffee17 	ldw	r3,-72(fp)
 8001ab4:	e0bffa17 	ldw	r2,-24(fp)
 8001ab8:	1885883a 	add	r2,r3,r2
 8001abc:	e0bfee15 	stw	r2,-72(fp)
 8001ac0:	e0ffec17 	ldw	r3,-80(fp)
 8001ac4:	e0bffb17 	ldw	r2,-20(fp)
 8001ac8:	18bf8916 	blt	r3,r2,80018f0 <kann_class_error_core+0x114>
}

static int kann_class_error_core(const kann_t *ann, int *base)
{
	int i, j, k, m, n, off, n_err = 0;
	for (i = 0, *base = 0; i < ann->n; ++i) {
 8001acc:	e0bfeb17 	ldw	r2,-84(fp)
 8001ad0:	10800044 	addi	r2,r2,1
 8001ad4:	e0bfeb15 	stw	r2,-84(fp)
 8001ad8:	e0bffe17 	ldw	r2,-8(fp)
 8001adc:	10800017 	ldw	r2,0(r2)
 8001ae0:	e0ffeb17 	ldw	r3,-84(fp)
 8001ae4:	18bf4b16 	blt	r3,r2,8001814 <kann_class_error_core+0x38>
					n_err += (x_max_k != t_max_k);
				}
			}
		}
	}
	return n_err;
 8001ae8:	e0bfef17 	ldw	r2,-68(fp)
}
 8001aec:	e037883a 	mov	sp,fp
 8001af0:	dfc00117 	ldw	ra,4(sp)
 8001af4:	df000017 	ldw	fp,0(sp)
 8001af8:	dec00204 	addi	sp,sp,8
 8001afc:	f800283a 	ret

08001b00 <kann_mt>:
	}
	for (i = 0; i < mt->n_threads; ++i)
		kann_switch_core(mt->mt[i].a, is_train);
}
#else
void kann_mt(kann_t *ann, int n_threads, int max_batch_size) {}
 8001b00:	f811883a 	mov	r8,ra
 8001b04:	802e3940 	call	802e394 <_mcount>
 8001b08:	403f883a 	mov	ra,r8
 8001b0c:	defffc04 	addi	sp,sp,-16
 8001b10:	df000315 	stw	fp,12(sp)
 8001b14:	df000304 	addi	fp,sp,12
 8001b18:	e13ffd15 	stw	r4,-12(fp)
 8001b1c:	e17ffe15 	stw	r5,-8(fp)
 8001b20:	e1bfff15 	stw	r6,-4(fp)
 8001b24:	0001883a 	nop
 8001b28:	e037883a 	mov	sp,fp
 8001b2c:	df000017 	ldw	fp,0(sp)
 8001b30:	dec00104 	addi	sp,sp,4
 8001b34:	f800283a 	ret

08001b38 <kann_cost>:
float kann_cost(kann_t *a, int cost_label, int cal_grad) { return kann_cost_core(a, cost_label, cal_grad); }
 8001b38:	f811883a 	mov	r8,ra
 8001b3c:	802e3940 	call	802e394 <_mcount>
 8001b40:	403f883a 	mov	ra,r8
 8001b44:	defffb04 	addi	sp,sp,-20
 8001b48:	dfc00415 	stw	ra,16(sp)
 8001b4c:	df000315 	stw	fp,12(sp)
 8001b50:	df000304 	addi	fp,sp,12
 8001b54:	e13ffd15 	stw	r4,-12(fp)
 8001b58:	e17ffe15 	stw	r5,-8(fp)
 8001b5c:	e1bfff15 	stw	r6,-4(fp)
 8001b60:	e1bfff17 	ldw	r6,-4(fp)
 8001b64:	e17ffe17 	ldw	r5,-8(fp)
 8001b68:	e13ffd17 	ldw	r4,-12(fp)
 8001b6c:	800134c0 	call	800134c <kann_cost_core>
 8001b70:	1007883a 	mov	r3,r2
 8001b74:	1805883a 	mov	r2,r3
 8001b78:	e037883a 	mov	sp,fp
 8001b7c:	dfc00117 	ldw	ra,4(sp)
 8001b80:	df000017 	ldw	fp,0(sp)
 8001b84:	dec00204 	addi	sp,sp,8
 8001b88:	f800283a 	ret

08001b8c <kann_class_error>:
int kann_class_error(const kann_t *a, int *base) { return kann_class_error_core(a, base); }
 8001b8c:	f811883a 	mov	r8,ra
 8001b90:	802e3940 	call	802e394 <_mcount>
 8001b94:	403f883a 	mov	ra,r8
 8001b98:	defffc04 	addi	sp,sp,-16
 8001b9c:	dfc00315 	stw	ra,12(sp)
 8001ba0:	df000215 	stw	fp,8(sp)
 8001ba4:	df000204 	addi	fp,sp,8
 8001ba8:	e13ffe15 	stw	r4,-8(fp)
 8001bac:	e17fff15 	stw	r5,-4(fp)
 8001bb0:	e17fff17 	ldw	r5,-4(fp)
 8001bb4:	e13ffe17 	ldw	r4,-8(fp)
 8001bb8:	80017dc0 	call	80017dc <kann_class_error_core>
 8001bbc:	e037883a 	mov	sp,fp
 8001bc0:	dfc00117 	ldw	ra,4(sp)
 8001bc4:	df000017 	ldw	fp,0(sp)
 8001bc8:	dec00204 	addi	sp,sp,8
 8001bcc:	f800283a 	ret

08001bd0 <kann_switch>:
void kann_switch(kann_t *ann, int is_train) { return kann_switch_core(ann, is_train); }
 8001bd0:	f811883a 	mov	r8,ra
 8001bd4:	802e3940 	call	802e394 <_mcount>
 8001bd8:	403f883a 	mov	ra,r8
 8001bdc:	defffc04 	addi	sp,sp,-16
 8001be0:	dfc00315 	stw	ra,12(sp)
 8001be4:	df000215 	stw	fp,8(sp)
 8001be8:	df000204 	addi	fp,sp,8
 8001bec:	e13ffe15 	stw	r4,-8(fp)
 8001bf0:	e17fff15 	stw	r5,-4(fp)
 8001bf4:	e17fff17 	ldw	r5,-4(fp)
 8001bf8:	e13ffe17 	ldw	r4,-8(fp)
 8001bfc:	8000d740 	call	8000d74 <kann_switch_core>
 8001c00:	e037883a 	mov	sp,fp
 8001c04:	dfc00117 	ldw	ra,4(sp)
 8001c08:	df000017 	ldw	fp,0(sp)
 8001c0c:	dec00204 	addi	sp,sp,8
 8001c10:	f800283a 	ret

08001c14 <kann_save_fp>:
 ***********************/

#define KANN_MAGIC "KAN\1"

void kann_save_fp(FILE *fp, kann_t *ann)
{
 8001c14:	f811883a 	mov	r8,ra
 8001c18:	802e3940 	call	802e394 <_mcount>
 8001c1c:	403f883a 	mov	ra,r8
 8001c20:	defffb04 	addi	sp,sp,-20
 8001c24:	dfc00415 	stw	ra,16(sp)
 8001c28:	df000315 	stw	fp,12(sp)
 8001c2c:	dc000215 	stw	r16,8(sp)
 8001c30:	df000304 	addi	fp,sp,12
 8001c34:	e13ffd15 	stw	r4,-12(fp)
 8001c38:	e17ffe15 	stw	r5,-8(fp)
	kann_set_batch_size(ann, 1);
 8001c3c:	e0bffe17 	ldw	r2,-8(fp)
 8001c40:	10c00017 	ldw	r3,0(r2)
 8001c44:	e0bffe17 	ldw	r2,-8(fp)
 8001c48:	10800117 	ldw	r2,4(r2)
 8001c4c:	01800044 	movi	r6,1
 8001c50:	100b883a 	mov	r5,r2
 8001c54:	1809883a 	mov	r4,r3
 8001c58:	80073100 	call	8007310 <kad_sync_dim>
	fwrite(KANN_MAGIC, 1, 4, fp);
 8001c5c:	e1fffd17 	ldw	r7,-12(fp)
 8001c60:	01800104 	movi	r6,4
 8001c64:	01400044 	movi	r5,1
 8001c68:	010200f4 	movhi	r4,2051
 8001c6c:	21148304 	addi	r4,r4,21004
 8001c70:	80217c40 	call	80217c4 <fwrite>
	kad_save(fp, ann->n, ann->v);
 8001c74:	e0bffe17 	ldw	r2,-8(fp)
 8001c78:	10c00017 	ldw	r3,0(r2)
 8001c7c:	e0bffe17 	ldw	r2,-8(fp)
 8001c80:	10800117 	ldw	r2,4(r2)
 8001c84:	100d883a 	mov	r6,r2
 8001c88:	180b883a 	mov	r5,r3
 8001c8c:	e13ffd17 	ldw	r4,-12(fp)
 8001c90:	8008a9c0 	call	8008a9c <kad_save>
	fwrite(ann->x, sizeof(float), kann_size_var(ann), fp);
 8001c94:	e0bffe17 	ldw	r2,-8(fp)
 8001c98:	14000217 	ldw	r16,8(r2)
 8001c9c:	e0bffe17 	ldw	r2,-8(fp)
 8001ca0:	10c00017 	ldw	r3,0(r2)
 8001ca4:	e0bffe17 	ldw	r2,-8(fp)
 8001ca8:	10800117 	ldw	r2,4(r2)
 8001cac:	100b883a 	mov	r5,r2
 8001cb0:	1809883a 	mov	r4,r3
 8001cb4:	8007d800 	call	8007d80 <kad_size_var>
 8001cb8:	e1fffd17 	ldw	r7,-12(fp)
 8001cbc:	100d883a 	mov	r6,r2
 8001cc0:	01400104 	movi	r5,4
 8001cc4:	8009883a 	mov	r4,r16
 8001cc8:	80217c40 	call	80217c4 <fwrite>
	fwrite(ann->c, sizeof(float), kann_size_const(ann), fp);
 8001ccc:	e0bffe17 	ldw	r2,-8(fp)
 8001cd0:	14000417 	ldw	r16,16(r2)
 8001cd4:	e0bffe17 	ldw	r2,-8(fp)
 8001cd8:	10c00017 	ldw	r3,0(r2)
 8001cdc:	e0bffe17 	ldw	r2,-8(fp)
 8001ce0:	10800117 	ldw	r2,4(r2)
 8001ce4:	100b883a 	mov	r5,r2
 8001ce8:	1809883a 	mov	r4,r3
 8001cec:	8007e680 	call	8007e68 <kad_size_const>
 8001cf0:	e1fffd17 	ldw	r7,-12(fp)
 8001cf4:	100d883a 	mov	r6,r2
 8001cf8:	01400104 	movi	r5,4
 8001cfc:	8009883a 	mov	r4,r16
 8001d00:	80217c40 	call	80217c4 <fwrite>
}
 8001d04:	0001883a 	nop
 8001d08:	e6ffff04 	addi	sp,fp,-4
 8001d0c:	dfc00217 	ldw	ra,8(sp)
 8001d10:	df000117 	ldw	fp,4(sp)
 8001d14:	dc000017 	ldw	r16,0(sp)
 8001d18:	dec00304 	addi	sp,sp,12
 8001d1c:	f800283a 	ret

08001d20 <kann_save>:

void kann_save(const char *fn, kann_t *ann)
{
 8001d20:	f811883a 	mov	r8,ra
 8001d24:	802e3940 	call	802e394 <_mcount>
 8001d28:	403f883a 	mov	ra,r8
 8001d2c:	defffb04 	addi	sp,sp,-20
 8001d30:	dfc00415 	stw	ra,16(sp)
 8001d34:	df000315 	stw	fp,12(sp)
 8001d38:	df000304 	addi	fp,sp,12
 8001d3c:	e13ffe15 	stw	r4,-8(fp)
 8001d40:	e17fff15 	stw	r5,-4(fp)
	FILE *fp;
	fp = fn && strcmp(fn, "-")? fopen(fn, "wb") : stdout;
 8001d44:	e0bffe17 	ldw	r2,-8(fp)
 8001d48:	10000a26 	beq	r2,zero,8001d74 <kann_save+0x54>
 8001d4c:	014200f4 	movhi	r5,2051
 8001d50:	29548504 	addi	r5,r5,21012
 8001d54:	e13ffe17 	ldw	r4,-8(fp)
 8001d58:	802365c0 	call	802365c <strcmp>
 8001d5c:	10000526 	beq	r2,zero,8001d74 <kann_save+0x54>
 8001d60:	014200f4 	movhi	r5,2051
 8001d64:	29548604 	addi	r5,r5,21016
 8001d68:	e13ffe17 	ldw	r4,-8(fp)
 8001d6c:	802029c0 	call	802029c <fopen>
 8001d70:	00000206 	br	8001d7c <kann_save+0x5c>
 8001d74:	d0a00f17 	ldw	r2,-32708(gp)
 8001d78:	10800217 	ldw	r2,8(r2)
 8001d7c:	e0bffd15 	stw	r2,-12(fp)
	kann_save_fp(fp, ann);
 8001d80:	e17fff17 	ldw	r5,-4(fp)
 8001d84:	e13ffd17 	ldw	r4,-12(fp)
 8001d88:	8001c140 	call	8001c14 <kann_save_fp>
	fclose(fp);
 8001d8c:	e13ffd17 	ldw	r4,-12(fp)
 8001d90:	801f8080 	call	801f808 <fclose>
}
 8001d94:	0001883a 	nop
 8001d98:	e037883a 	mov	sp,fp
 8001d9c:	dfc00117 	ldw	ra,4(sp)
 8001da0:	df000017 	ldw	fp,0(sp)
 8001da4:	dec00204 	addi	sp,sp,8
 8001da8:	f800283a 	ret

08001dac <kann_load_fp>:

kann_t *kann_load_fp(FILE *fp)
{
 8001dac:	f811883a 	mov	r8,ra
 8001db0:	802e3940 	call	802e394 <_mcount>
 8001db4:	403f883a 	mov	ra,r8
 8001db8:	defff804 	addi	sp,sp,-32
 8001dbc:	dfc00715 	stw	ra,28(sp)
 8001dc0:	df000615 	stw	fp,24(sp)
 8001dc4:	df000604 	addi	fp,sp,24
 8001dc8:	e13fff15 	stw	r4,-4(fp)
	char magic[4];
	kann_t *ann;
	int n_var, n_const;

	fread(magic, 1, 4, fp);
 8001dcc:	e0bffe04 	addi	r2,fp,-8
 8001dd0:	e1ffff17 	ldw	r7,-4(fp)
 8001dd4:	01800104 	movi	r6,4
 8001dd8:	01400044 	movi	r5,1
 8001ddc:	1009883a 	mov	r4,r2
 8001de0:	80206e00 	call	80206e0 <fread>
	if (strncmp(magic, KANN_MAGIC, 4) != 0) {
 8001de4:	e0bffe04 	addi	r2,fp,-8
 8001de8:	01800104 	movi	r6,4
 8001dec:	014200f4 	movhi	r5,2051
 8001df0:	29548304 	addi	r5,r5,21004
 8001df4:	1009883a 	mov	r4,r2
 8001df8:	80238740 	call	8023874 <strncmp>
 8001dfc:	10000426 	beq	r2,zero,8001e10 <kann_load_fp+0x64>
		fclose(fp);
 8001e00:	e13fff17 	ldw	r4,-4(fp)
 8001e04:	801f8080 	call	801f808 <fclose>
		return 0;
 8001e08:	0005883a 	mov	r2,zero
 8001e0c:	00005306 	br	8001f5c <kann_load_fp+0x1b0>
	}
	ann = (kann_t*)calloc(1, sizeof(kann_t));
 8001e10:	01400604 	movi	r5,24
 8001e14:	01000044 	movi	r4,1
 8001e18:	801f5b80 	call	801f5b8 <calloc>
 8001e1c:	e0bffb15 	stw	r2,-20(fp)
	ann->v = kad_load(fp, &ann->n);
 8001e20:	e0bffb17 	ldw	r2,-20(fp)
 8001e24:	100b883a 	mov	r5,r2
 8001e28:	e13fff17 	ldw	r4,-4(fp)
 8001e2c:	8008bc80 	call	8008bc8 <kad_load>
 8001e30:	1007883a 	mov	r3,r2
 8001e34:	e0bffb17 	ldw	r2,-20(fp)
 8001e38:	10c00115 	stw	r3,4(r2)
	n_var = kad_size_var(ann->n, ann->v);
 8001e3c:	e0bffb17 	ldw	r2,-20(fp)
 8001e40:	10c00017 	ldw	r3,0(r2)
 8001e44:	e0bffb17 	ldw	r2,-20(fp)
 8001e48:	10800117 	ldw	r2,4(r2)
 8001e4c:	100b883a 	mov	r5,r2
 8001e50:	1809883a 	mov	r4,r3
 8001e54:	8007d800 	call	8007d80 <kad_size_var>
 8001e58:	e0bffc15 	stw	r2,-16(fp)
	n_const = kad_size_const(ann->n, ann->v);
 8001e5c:	e0bffb17 	ldw	r2,-20(fp)
 8001e60:	10c00017 	ldw	r3,0(r2)
 8001e64:	e0bffb17 	ldw	r2,-20(fp)
 8001e68:	10800117 	ldw	r2,4(r2)
 8001e6c:	100b883a 	mov	r5,r2
 8001e70:	1809883a 	mov	r4,r3
 8001e74:	8007e680 	call	8007e68 <kad_size_const>
 8001e78:	e0bffd15 	stw	r2,-12(fp)
	ann->x = (float*)malloc(n_var * sizeof(float));
 8001e7c:	e0bffc17 	ldw	r2,-16(fp)
 8001e80:	1085883a 	add	r2,r2,r2
 8001e84:	1085883a 	add	r2,r2,r2
 8001e88:	1009883a 	mov	r4,r2
 8001e8c:	80219cc0 	call	80219cc <malloc>
 8001e90:	1007883a 	mov	r3,r2
 8001e94:	e0bffb17 	ldw	r2,-20(fp)
 8001e98:	10c00215 	stw	r3,8(r2)
	ann->g = (float*)calloc(n_var, sizeof(float));
 8001e9c:	e0bffc17 	ldw	r2,-16(fp)
 8001ea0:	01400104 	movi	r5,4
 8001ea4:	1009883a 	mov	r4,r2
 8001ea8:	801f5b80 	call	801f5b8 <calloc>
 8001eac:	1007883a 	mov	r3,r2
 8001eb0:	e0bffb17 	ldw	r2,-20(fp)
 8001eb4:	10c00315 	stw	r3,12(r2)
	ann->c = (float*)malloc(n_const * sizeof(float));
 8001eb8:	e0bffd17 	ldw	r2,-12(fp)
 8001ebc:	1085883a 	add	r2,r2,r2
 8001ec0:	1085883a 	add	r2,r2,r2
 8001ec4:	1009883a 	mov	r4,r2
 8001ec8:	80219cc0 	call	80219cc <malloc>
 8001ecc:	1007883a 	mov	r3,r2
 8001ed0:	e0bffb17 	ldw	r2,-20(fp)
 8001ed4:	10c00415 	stw	r3,16(r2)
	fread(ann->x, sizeof(float), n_var, fp);
 8001ed8:	e0bffb17 	ldw	r2,-20(fp)
 8001edc:	10800217 	ldw	r2,8(r2)
 8001ee0:	e0fffc17 	ldw	r3,-16(fp)
 8001ee4:	e1ffff17 	ldw	r7,-4(fp)
 8001ee8:	180d883a 	mov	r6,r3
 8001eec:	01400104 	movi	r5,4
 8001ef0:	1009883a 	mov	r4,r2
 8001ef4:	80206e00 	call	80206e0 <fread>
	fread(ann->c, sizeof(float), n_const, fp);
 8001ef8:	e0bffb17 	ldw	r2,-20(fp)
 8001efc:	10800417 	ldw	r2,16(r2)
 8001f00:	e0fffd17 	ldw	r3,-12(fp)
 8001f04:	e1ffff17 	ldw	r7,-4(fp)
 8001f08:	180d883a 	mov	r6,r3
 8001f0c:	01400104 	movi	r5,4
 8001f10:	1009883a 	mov	r4,r2
 8001f14:	80206e00 	call	80206e0 <fread>
	kad_ext_sync(ann->n, ann->v, ann->x, ann->g, ann->c);
 8001f18:	e0bffb17 	ldw	r2,-20(fp)
 8001f1c:	10c00017 	ldw	r3,0(r2)
 8001f20:	e0bffb17 	ldw	r2,-20(fp)
 8001f24:	11000117 	ldw	r4,4(r2)
 8001f28:	e0bffb17 	ldw	r2,-20(fp)
 8001f2c:	11400217 	ldw	r5,8(r2)
 8001f30:	e0bffb17 	ldw	r2,-20(fp)
 8001f34:	11800317 	ldw	r6,12(r2)
 8001f38:	e0bffb17 	ldw	r2,-20(fp)
 8001f3c:	10800417 	ldw	r2,16(r2)
 8001f40:	d8800015 	stw	r2,0(sp)
 8001f44:	300f883a 	mov	r7,r6
 8001f48:	280d883a 	mov	r6,r5
 8001f4c:	200b883a 	mov	r5,r4
 8001f50:	1809883a 	mov	r4,r3
 8001f54:	800058c0 	call	800058c <kad_ext_sync>
	return ann;
 8001f58:	e0bffb17 	ldw	r2,-20(fp)
}
 8001f5c:	e037883a 	mov	sp,fp
 8001f60:	dfc00117 	ldw	ra,4(sp)
 8001f64:	df000017 	ldw	fp,0(sp)
 8001f68:	dec00204 	addi	sp,sp,8
 8001f6c:	f800283a 	ret

08001f70 <kann_load>:

kann_t *kann_load(const char *fn)
{
 8001f70:	f811883a 	mov	r8,ra
 8001f74:	802e3940 	call	802e394 <_mcount>
 8001f78:	403f883a 	mov	ra,r8
 8001f7c:	defffb04 	addi	sp,sp,-20
 8001f80:	dfc00415 	stw	ra,16(sp)
 8001f84:	df000315 	stw	fp,12(sp)
 8001f88:	df000304 	addi	fp,sp,12
 8001f8c:	e13fff15 	stw	r4,-4(fp)
	FILE *fp;
	kann_t *ann;
	fp = fn && strcmp(fn, "-")? fopen(fn, "rb") : stdin;
 8001f90:	e0bfff17 	ldw	r2,-4(fp)
 8001f94:	10000a26 	beq	r2,zero,8001fc0 <kann_load+0x50>
 8001f98:	014200f4 	movhi	r5,2051
 8001f9c:	29548504 	addi	r5,r5,21012
 8001fa0:	e13fff17 	ldw	r4,-4(fp)
 8001fa4:	802365c0 	call	802365c <strcmp>
 8001fa8:	10000526 	beq	r2,zero,8001fc0 <kann_load+0x50>
 8001fac:	014200f4 	movhi	r5,2051
 8001fb0:	29548704 	addi	r5,r5,21020
 8001fb4:	e13fff17 	ldw	r4,-4(fp)
 8001fb8:	802029c0 	call	802029c <fopen>
 8001fbc:	00000206 	br	8001fc8 <kann_load+0x58>
 8001fc0:	d0a00f17 	ldw	r2,-32708(gp)
 8001fc4:	10800117 	ldw	r2,4(r2)
 8001fc8:	e0bffd15 	stw	r2,-12(fp)
	if (fp == NULL) {
 8001fcc:	e0bffd17 	ldw	r2,-12(fp)
 8001fd0:	1000061e 	bne	r2,zero,8001fec <kann_load+0x7c>
		printf("[ERROR] Cannot open %s\n", fn);
 8001fd4:	e17fff17 	ldw	r5,-4(fp)
 8001fd8:	010200f4 	movhi	r4,2051
 8001fdc:	21148804 	addi	r4,r4,21024
 8001fe0:	80227a40 	call	80227a4 <printf>
		exit(1);
 8001fe4:	01000044 	movi	r4,1
 8001fe8:	801f6c80 	call	801f6c8 <exit>
	}
	ann = kann_load_fp(fp);
 8001fec:	e13ffd17 	ldw	r4,-12(fp)
 8001ff0:	8001dac0 	call	8001dac <kann_load_fp>
 8001ff4:	e0bffe15 	stw	r2,-8(fp)
	fclose(fp);
 8001ff8:	e13ffd17 	ldw	r4,-12(fp)
 8001ffc:	801f8080 	call	801f808 <fclose>
	return ann;
 8002000:	e0bffe17 	ldw	r2,-8(fp)
}
 8002004:	e037883a 	mov	sp,fp
 8002008:	dfc00117 	ldw	ra,4(sp)
 800200c:	df000017 	ldw	fp,0(sp)
 8002010:	dec00204 	addi	sp,sp,8
 8002014:	f800283a 	ret

08002018 <kann_new_leaf_array>:
 **********************************************/

/********** General but more complex APIs **********/

kad_node_t *kann_new_leaf_array(int *offset, kad_node_p *par, uint8_t flag, float x0_01, int n_d, int32_t d[KAD_MAX_DIM])
{
 8002018:	f811883a 	mov	r8,ra
 800201c:	802e3940 	call	802e394 <_mcount>
 8002020:	403f883a 	mov	ra,r8
 8002024:	defff204 	addi	sp,sp,-56
 8002028:	dfc00d15 	stw	ra,52(sp)
 800202c:	df000c15 	stw	fp,48(sp)
 8002030:	dc400b15 	stw	r17,44(sp)
 8002034:	dc000a15 	stw	r16,40(sp)
 8002038:	df000c04 	addi	fp,sp,48
 800203c:	e13ffa15 	stw	r4,-24(fp)
 8002040:	e17ffb15 	stw	r5,-20(fp)
 8002044:	3005883a 	mov	r2,r6
 8002048:	e1fffd15 	stw	r7,-12(fp)
 800204c:	e0bffc05 	stb	r2,-16(fp)
	int i, len, off = offset && par? *offset : -1;
 8002050:	e0bffa17 	ldw	r2,-24(fp)
 8002054:	10000526 	beq	r2,zero,800206c <kann_new_leaf_array+0x54>
 8002058:	e0bffb17 	ldw	r2,-20(fp)
 800205c:	10000326 	beq	r2,zero,800206c <kann_new_leaf_array+0x54>
 8002060:	e0bffa17 	ldw	r2,-24(fp)
 8002064:	10800017 	ldw	r2,0(r2)
 8002068:	00000106 	br	8002070 <kann_new_leaf_array+0x58>
 800206c:	00bfffc4 	movi	r2,-1
 8002070:	e0bff515 	stw	r2,-44(fp)
	kad_node_t *p;

	if (off >= 0 && par[off]) return par[(*offset)++];
 8002074:	e0bff517 	ldw	r2,-44(fp)
 8002078:	10001416 	blt	r2,zero,80020cc <kann_new_leaf_array+0xb4>
 800207c:	e0bff517 	ldw	r2,-44(fp)
 8002080:	1085883a 	add	r2,r2,r2
 8002084:	1085883a 	add	r2,r2,r2
 8002088:	1007883a 	mov	r3,r2
 800208c:	e0bffb17 	ldw	r2,-20(fp)
 8002090:	10c5883a 	add	r2,r2,r3
 8002094:	10800017 	ldw	r2,0(r2)
 8002098:	10000c26 	beq	r2,zero,80020cc <kann_new_leaf_array+0xb4>
 800209c:	e0bffa17 	ldw	r2,-24(fp)
 80020a0:	10800017 	ldw	r2,0(r2)
 80020a4:	11000044 	addi	r4,r2,1
 80020a8:	e0fffa17 	ldw	r3,-24(fp)
 80020ac:	19000015 	stw	r4,0(r3)
 80020b0:	1085883a 	add	r2,r2,r2
 80020b4:	1085883a 	add	r2,r2,r2
 80020b8:	1007883a 	mov	r3,r2
 80020bc:	e0bffb17 	ldw	r2,-20(fp)
 80020c0:	10c5883a 	add	r2,r2,r3
 80020c4:	10800017 	ldw	r2,0(r2)
 80020c8:	00008506 	br	80022e0 <kann_new_leaf_array+0x2c8>
	p = (kad_node_t*)calloc(1, sizeof(kad_node_t));
 80020cc:	01401004 	movi	r5,64
 80020d0:	01000044 	movi	r4,1
 80020d4:	801f5b80 	call	801f5b8 <calloc>
 80020d8:	e0bff615 	stw	r2,-40(fp)
	p->n_d = n_d, p->flag = flag;
 80020dc:	e0800217 	ldw	r2,8(fp)
 80020e0:	1007883a 	mov	r3,r2
 80020e4:	e0bff617 	ldw	r2,-40(fp)
 80020e8:	10c00005 	stb	r3,0(r2)
 80020ec:	e0bff617 	ldw	r2,-40(fp)
 80020f0:	e0fffc03 	ldbu	r3,-16(fp)
 80020f4:	10c00045 	stb	r3,1(r2)
	memcpy(p->d, d, n_d * sizeof(int32_t));
 80020f8:	e0bff617 	ldw	r2,-40(fp)
 80020fc:	10c00404 	addi	r3,r2,16
 8002100:	e0800217 	ldw	r2,8(fp)
 8002104:	1085883a 	add	r2,r2,r2
 8002108:	1085883a 	add	r2,r2,r2
 800210c:	100d883a 	mov	r6,r2
 8002110:	e1400317 	ldw	r5,12(fp)
 8002114:	1809883a 	mov	r4,r3
 8002118:	80223140 	call	8022314 <memcpy>
	len = kad_len(p);
 800211c:	e13ff617 	ldw	r4,-40(fp)
 8002120:	80002180 	call	8000218 <kad_len>
 8002124:	e0bff715 	stw	r2,-36(fp)
	p->x = (float*)calloc(len, sizeof(float));
 8002128:	e0bff717 	ldw	r2,-36(fp)
 800212c:	01400104 	movi	r5,4
 8002130:	1009883a 	mov	r4,r2
 8002134:	801f5b80 	call	801f5b8 <calloc>
 8002138:	1007883a 	mov	r3,r2
 800213c:	e0bff617 	ldw	r2,-40(fp)
 8002140:	10c00a15 	stw	r3,40(r2)
	if (p->n_d <= 1) {
 8002144:	e0bff617 	ldw	r2,-40(fp)
 8002148:	10800003 	ldbu	r2,0(r2)
 800214c:	10803fcc 	andi	r2,r2,255
 8002150:	108000a8 	cmpgeui	r2,r2,2
 8002154:	1000111e 	bne	r2,zero,800219c <kann_new_leaf_array+0x184>
		for (i = 0; i < len; ++i)
 8002158:	e03ff415 	stw	zero,-48(fp)
 800215c:	00000b06 	br	800218c <kann_new_leaf_array+0x174>
			p->x[i] = x0_01;
 8002160:	e0bff617 	ldw	r2,-40(fp)
 8002164:	10c00a17 	ldw	r3,40(r2)
 8002168:	e0bff417 	ldw	r2,-48(fp)
 800216c:	1085883a 	add	r2,r2,r2
 8002170:	1085883a 	add	r2,r2,r2
 8002174:	1885883a 	add	r2,r3,r2
 8002178:	e0fffd17 	ldw	r3,-12(fp)
 800217c:	10c00015 	stw	r3,0(r2)
	p->n_d = n_d, p->flag = flag;
	memcpy(p->d, d, n_d * sizeof(int32_t));
	len = kad_len(p);
	p->x = (float*)calloc(len, sizeof(float));
	if (p->n_d <= 1) {
		for (i = 0; i < len; ++i)
 8002180:	e0bff417 	ldw	r2,-48(fp)
 8002184:	10800044 	addi	r2,r2,1
 8002188:	e0bff415 	stw	r2,-48(fp)
 800218c:	e0fff417 	ldw	r3,-48(fp)
 8002190:	e0bff717 	ldw	r2,-36(fp)
 8002194:	18bff216 	blt	r3,r2,8002160 <kann_new_leaf_array+0x148>
 8002198:	00004106 	br	80022a0 <kann_new_leaf_array+0x288>
			p->x[i] = x0_01;
	} else {
		double sdev_inv;
		sdev_inv = 1.0 / sqrt((double)len / p->d[0]);
 800219c:	e13ff717 	ldw	r4,-36(fp)
 80021a0:	801f0d80 	call	801f0d8 <__floatsidf>
 80021a4:	1021883a 	mov	r16,r2
 80021a8:	1823883a 	mov	r17,r3
 80021ac:	e0bff617 	ldw	r2,-40(fp)
 80021b0:	10800417 	ldw	r2,16(r2)
 80021b4:	1009883a 	mov	r4,r2
 80021b8:	801f0d80 	call	801f0d8 <__floatsidf>
 80021bc:	1009883a 	mov	r4,r2
 80021c0:	180b883a 	mov	r5,r3
 80021c4:	200d883a 	mov	r6,r4
 80021c8:	280f883a 	mov	r7,r5
 80021cc:	8009883a 	mov	r4,r16
 80021d0:	880b883a 	mov	r5,r17
 80021d4:	801d4c00 	call	801d4c0 <__divdf3>
 80021d8:	1009883a 	mov	r4,r2
 80021dc:	180b883a 	mov	r5,r3
 80021e0:	2005883a 	mov	r2,r4
 80021e4:	2807883a 	mov	r3,r5
 80021e8:	1009883a 	mov	r4,r2
 80021ec:	180b883a 	mov	r5,r3
 80021f0:	80182640 	call	8018264 <sqrt>
 80021f4:	1009883a 	mov	r4,r2
 80021f8:	180b883a 	mov	r5,r3
 80021fc:	200d883a 	mov	r6,r4
 8002200:	280f883a 	mov	r7,r5
 8002204:	0009883a 	mov	r4,zero
 8002208:	014ffc34 	movhi	r5,16368
 800220c:	801d4c00 	call	801d4c0 <__divdf3>
 8002210:	1009883a 	mov	r4,r2
 8002214:	180b883a 	mov	r5,r3
 8002218:	e13ff815 	stw	r4,-32(fp)
 800221c:	e17ff915 	stw	r5,-28(fp)
		for (i = 0; i < len; ++i)
 8002220:	e03ff415 	stw	zero,-48(fp)
 8002224:	00001b06 	br	8002294 <kann_new_leaf_array+0x27c>
			p->x[i] = (float)(kad_drand_normal(0) * sdev_inv);
 8002228:	e0bff617 	ldw	r2,-40(fp)
 800222c:	10c00a17 	ldw	r3,40(r2)
 8002230:	e0bff417 	ldw	r2,-48(fp)
 8002234:	1085883a 	add	r2,r2,r2
 8002238:	1085883a 	add	r2,r2,r2
 800223c:	18a1883a 	add	r16,r3,r2
 8002240:	0009883a 	mov	r4,zero
 8002244:	800aea40 	call	800aea4 <kad_drand_normal>
 8002248:	1011883a 	mov	r8,r2
 800224c:	1813883a 	mov	r9,r3
 8002250:	e1bff817 	ldw	r6,-32(fp)
 8002254:	e1fff917 	ldw	r7,-28(fp)
 8002258:	4009883a 	mov	r4,r8
 800225c:	480b883a 	mov	r5,r9
 8002260:	801e0200 	call	801e020 <__muldf3>
 8002264:	1009883a 	mov	r4,r2
 8002268:	180b883a 	mov	r5,r3
 800226c:	2005883a 	mov	r2,r4
 8002270:	2807883a 	mov	r3,r5
 8002274:	1009883a 	mov	r4,r2
 8002278:	180b883a 	mov	r5,r3
 800227c:	801f2dc0 	call	801f2dc <__truncdfsf2>
 8002280:	1007883a 	mov	r3,r2
 8002284:	80c00015 	stw	r3,0(r16)
		for (i = 0; i < len; ++i)
			p->x[i] = x0_01;
	} else {
		double sdev_inv;
		sdev_inv = 1.0 / sqrt((double)len / p->d[0]);
		for (i = 0; i < len; ++i)
 8002288:	e0bff417 	ldw	r2,-48(fp)
 800228c:	10800044 	addi	r2,r2,1
 8002290:	e0bff415 	stw	r2,-48(fp)
 8002294:	e0fff417 	ldw	r3,-48(fp)
 8002298:	e0bff717 	ldw	r2,-36(fp)
 800229c:	18bfe216 	blt	r3,r2,8002228 <kann_new_leaf_array+0x210>
			p->x[i] = (float)(kad_drand_normal(0) * sdev_inv);
	}
	if (off >= 0) par[off] = p, ++(*offset);
 80022a0:	e0bff517 	ldw	r2,-44(fp)
 80022a4:	10000d16 	blt	r2,zero,80022dc <kann_new_leaf_array+0x2c4>
 80022a8:	e0bff517 	ldw	r2,-44(fp)
 80022ac:	1085883a 	add	r2,r2,r2
 80022b0:	1085883a 	add	r2,r2,r2
 80022b4:	1007883a 	mov	r3,r2
 80022b8:	e0bffb17 	ldw	r2,-20(fp)
 80022bc:	10c5883a 	add	r2,r2,r3
 80022c0:	e0fff617 	ldw	r3,-40(fp)
 80022c4:	10c00015 	stw	r3,0(r2)
 80022c8:	e0bffa17 	ldw	r2,-24(fp)
 80022cc:	10800017 	ldw	r2,0(r2)
 80022d0:	10c00044 	addi	r3,r2,1
 80022d4:	e0bffa17 	ldw	r2,-24(fp)
 80022d8:	10c00015 	stw	r3,0(r2)
	return p;
 80022dc:	e0bff617 	ldw	r2,-40(fp)
}
 80022e0:	e6fffe04 	addi	sp,fp,-8
 80022e4:	dfc00317 	ldw	ra,12(sp)
 80022e8:	df000217 	ldw	fp,8(sp)
 80022ec:	dc400117 	ldw	r17,4(sp)
 80022f0:	dc000017 	ldw	r16,0(sp)
 80022f4:	dec00404 	addi	sp,sp,16
 80022f8:	f800283a 	ret

080022fc <kann_new_leaf2>:

kad_node_t *kann_new_leaf2(int *offset, kad_node_p *par, uint8_t flag, float x0_01, int n_d, ...)
{
 80022fc:	f811883a 	mov	r8,ra
 8002300:	802e3940 	call	802e394 <_mcount>
 8002304:	403f883a 	mov	ra,r8
 8002308:	defff204 	addi	sp,sp,-56
 800230c:	dfc00d15 	stw	ra,52(sp)
 8002310:	df000c15 	stw	fp,48(sp)
 8002314:	df000c04 	addi	fp,sp,48
 8002318:	e13ffc15 	stw	r4,-16(fp)
 800231c:	e17ffd15 	stw	r5,-12(fp)
 8002320:	3005883a 	mov	r2,r6
 8002324:	e1ffff15 	stw	r7,-4(fp)
 8002328:	e0bffe05 	stb	r2,-8(fp)
	int32_t i, d[KAD_MAX_DIM];
	va_list ap;
	va_start(ap, n_d); for (i = 0; i < n_d; ++i) d[i] = va_arg(ap, int); va_end(ap);
 800232c:	e0800304 	addi	r2,fp,12
 8002330:	e0bffb15 	stw	r2,-20(fp)
 8002334:	e03ff615 	stw	zero,-40(fp)
 8002338:	00000e06 	br	8002374 <kann_new_leaf2+0x78>
 800233c:	e0bffb17 	ldw	r2,-20(fp)
 8002340:	10c00104 	addi	r3,r2,4
 8002344:	e0fffb15 	stw	r3,-20(fp)
 8002348:	10c00017 	ldw	r3,0(r2)
 800234c:	e0bff617 	ldw	r2,-40(fp)
 8002350:	1085883a 	add	r2,r2,r2
 8002354:	1085883a 	add	r2,r2,r2
 8002358:	e13ff604 	addi	r4,fp,-40
 800235c:	2085883a 	add	r2,r4,r2
 8002360:	10800104 	addi	r2,r2,4
 8002364:	10c00015 	stw	r3,0(r2)
 8002368:	e0bff617 	ldw	r2,-40(fp)
 800236c:	10800044 	addi	r2,r2,1
 8002370:	e0bff615 	stw	r2,-40(fp)
 8002374:	e0fff617 	ldw	r3,-40(fp)
 8002378:	e0800217 	ldw	r2,8(fp)
 800237c:	18bfef16 	blt	r3,r2,800233c <kann_new_leaf2+0x40>
	return kann_new_leaf_array(offset, par, flag, x0_01, n_d, d);
 8002380:	e0fffe03 	ldbu	r3,-8(fp)
 8002384:	e0bff704 	addi	r2,fp,-36
 8002388:	d8800115 	stw	r2,4(sp)
 800238c:	e0800217 	ldw	r2,8(fp)
 8002390:	d8800015 	stw	r2,0(sp)
 8002394:	e1ffff17 	ldw	r7,-4(fp)
 8002398:	180d883a 	mov	r6,r3
 800239c:	e17ffd17 	ldw	r5,-12(fp)
 80023a0:	e13ffc17 	ldw	r4,-16(fp)
 80023a4:	80020180 	call	8002018 <kann_new_leaf_array>
}
 80023a8:	e037883a 	mov	sp,fp
 80023ac:	dfc00117 	ldw	ra,4(sp)
 80023b0:	df000017 	ldw	fp,0(sp)
 80023b4:	dec00204 	addi	sp,sp,8
 80023b8:	f800283a 	ret

080023bc <kann_layer_dense2>:

kad_node_t *kann_layer_dense2(int *offset, kad_node_p *par, kad_node_t *in, int n1)
{
 80023bc:	f811883a 	mov	r8,ra
 80023c0:	802e3940 	call	802e394 <_mcount>
 80023c4:	403f883a 	mov	ra,r8
 80023c8:	defff404 	addi	sp,sp,-48
 80023cc:	dfc00b15 	stw	ra,44(sp)
 80023d0:	df000a15 	stw	fp,40(sp)
 80023d4:	df000a04 	addi	fp,sp,40
 80023d8:	e13ffc15 	stw	r4,-16(fp)
 80023dc:	e17ffd15 	stw	r5,-12(fp)
 80023e0:	e1bffe15 	stw	r6,-8(fp)
 80023e4:	e1ffff15 	stw	r7,-4(fp)
	int n0;
	kad_node_t *w, *b;
	n0 = in->n_d >= 2? kad_len(in) / in->d[0] : kad_len(in);
 80023e8:	e0bffe17 	ldw	r2,-8(fp)
 80023ec:	10800003 	ldbu	r2,0(r2)
 80023f0:	10803fcc 	andi	r2,r2,255
 80023f4:	108000b0 	cmpltui	r2,r2,2
 80023f8:	1000091e 	bne	r2,zero,8002420 <kann_layer_dense2+0x64>
 80023fc:	e13ffe17 	ldw	r4,-8(fp)
 8002400:	80002180 	call	8000218 <kad_len>
 8002404:	1007883a 	mov	r3,r2
 8002408:	e0bffe17 	ldw	r2,-8(fp)
 800240c:	10800417 	ldw	r2,16(r2)
 8002410:	100b883a 	mov	r5,r2
 8002414:	1809883a 	mov	r4,r3
 8002418:	801b4400 	call	801b440 <__divsi3>
 800241c:	00000206 	br	8002428 <kann_layer_dense2+0x6c>
 8002420:	e13ffe17 	ldw	r4,-8(fp)
 8002424:	80002180 	call	8000218 <kad_len>
 8002428:	e0bff915 	stw	r2,-28(fp)
	w = kann_new_leaf2(offset, par, KAD_VAR, 0.0f, 2, n1, n0);
 800242c:	e0bff917 	ldw	r2,-28(fp)
 8002430:	d8800215 	stw	r2,8(sp)
 8002434:	e0bfff17 	ldw	r2,-4(fp)
 8002438:	d8800115 	stw	r2,4(sp)
 800243c:	00800084 	movi	r2,2
 8002440:	d8800015 	stw	r2,0(sp)
 8002444:	000f883a 	mov	r7,zero
 8002448:	01800044 	movi	r6,1
 800244c:	e17ffd17 	ldw	r5,-12(fp)
 8002450:	e13ffc17 	ldw	r4,-16(fp)
 8002454:	80022fc0 	call	80022fc <kann_new_leaf2>
 8002458:	e0bffa15 	stw	r2,-24(fp)
	b = kann_new_leaf2(offset, par, KAD_VAR, 0.0f, 1, n1);
 800245c:	e0bfff17 	ldw	r2,-4(fp)
 8002460:	d8800115 	stw	r2,4(sp)
 8002464:	00800044 	movi	r2,1
 8002468:	d8800015 	stw	r2,0(sp)
 800246c:	000f883a 	mov	r7,zero
 8002470:	01800044 	movi	r6,1
 8002474:	e17ffd17 	ldw	r5,-12(fp)
 8002478:	e13ffc17 	ldw	r4,-16(fp)
 800247c:	80022fc0 	call	80022fc <kann_new_leaf2>
 8002480:	e0bffb15 	stw	r2,-20(fp)
	return kad_add(kad_cmul(in, w), b);
 8002484:	e17ffa17 	ldw	r5,-24(fp)
 8002488:	e13ffe17 	ldw	r4,-8(fp)
 800248c:	8005b5c0 	call	8005b5c <kad_cmul>
 8002490:	e17ffb17 	ldw	r5,-20(fp)
 8002494:	1009883a 	mov	r4,r2
 8002498:	8005a840 	call	8005a84 <kad_add>
}
 800249c:	e037883a 	mov	sp,fp
 80024a0:	dfc00117 	ldw	ra,4(sp)
 80024a4:	df000017 	ldw	fp,0(sp)
 80024a8:	dec00204 	addi	sp,sp,8
 80024ac:	f800283a 	ret

080024b0 <kann_layer_dropout2>:

kad_node_t *kann_layer_dropout2(int *offset, kad_node_p *par, kad_node_t *t, float r)
{
 80024b0:	f811883a 	mov	r8,ra
 80024b4:	802e3940 	call	802e394 <_mcount>
 80024b8:	403f883a 	mov	ra,r8
 80024bc:	defff604 	addi	sp,sp,-40
 80024c0:	dfc00915 	stw	ra,36(sp)
 80024c4:	df000815 	stw	fp,32(sp)
 80024c8:	df000804 	addi	fp,sp,32
 80024cc:	e13ffc15 	stw	r4,-16(fp)
 80024d0:	e17ffd15 	stw	r5,-12(fp)
 80024d4:	e1bffe15 	stw	r6,-8(fp)
 80024d8:	e1ffff15 	stw	r7,-4(fp)
	kad_node_t *x[2], *cr;
	cr = kann_new_leaf2(offset, par, KAD_CONST, r, 0);
 80024dc:	d8000015 	stw	zero,0(sp)
 80024e0:	e1ffff17 	ldw	r7,-4(fp)
 80024e4:	01800084 	movi	r6,2
 80024e8:	e17ffd17 	ldw	r5,-12(fp)
 80024ec:	e13ffc17 	ldw	r4,-16(fp)
 80024f0:	80022fc0 	call	80022fc <kann_new_leaf2>
 80024f4:	e0bff915 	stw	r2,-28(fp)
	x[0] = t, x[1] = kad_dropout(t, cr);
 80024f8:	e0bffe17 	ldw	r2,-8(fp)
 80024fc:	e0bffa15 	stw	r2,-24(fp)
 8002500:	e17ff917 	ldw	r5,-28(fp)
 8002504:	e13ffe17 	ldw	r4,-8(fp)
 8002508:	8006a340 	call	8006a34 <kad_dropout>
 800250c:	e0bffb15 	stw	r2,-20(fp)
	return kad_switch(2, x);
 8002510:	e0bffa04 	addi	r2,fp,-24
 8002514:	100b883a 	mov	r5,r2
 8002518:	01000084 	movi	r4,2
 800251c:	8006f340 	call	8006f34 <kad_switch>
}
 8002520:	e037883a 	mov	sp,fp
 8002524:	dfc00117 	ldw	ra,4(sp)
 8002528:	df000017 	ldw	fp,0(sp)
 800252c:	dec00204 	addi	sp,sp,8
 8002530:	f800283a 	ret

08002534 <kann_layer_layernorm2>:

kad_node_t *kann_layer_layernorm2(int *offset, kad_node_t **par, kad_node_t *in)
{
 8002534:	f811883a 	mov	r8,ra
 8002538:	802e3940 	call	802e394 <_mcount>
 800253c:	403f883a 	mov	ra,r8
 8002540:	defff604 	addi	sp,sp,-40
 8002544:	dfc00915 	stw	ra,36(sp)
 8002548:	df000815 	stw	fp,32(sp)
 800254c:	df000804 	addi	fp,sp,32
 8002550:	e13ffd15 	stw	r4,-12(fp)
 8002554:	e17ffe15 	stw	r5,-8(fp)
 8002558:	e1bfff15 	stw	r6,-4(fp)
	int n0;
	kad_node_t *alpha, *beta;
	n0 = in->n_d >= 2? kad_len(in) / in->d[0] : kad_len(in);
 800255c:	e0bfff17 	ldw	r2,-4(fp)
 8002560:	10800003 	ldbu	r2,0(r2)
 8002564:	10803fcc 	andi	r2,r2,255
 8002568:	108000b0 	cmpltui	r2,r2,2
 800256c:	1000091e 	bne	r2,zero,8002594 <kann_layer_layernorm2+0x60>
 8002570:	e13fff17 	ldw	r4,-4(fp)
 8002574:	80002180 	call	8000218 <kad_len>
 8002578:	1007883a 	mov	r3,r2
 800257c:	e0bfff17 	ldw	r2,-4(fp)
 8002580:	10800417 	ldw	r2,16(r2)
 8002584:	100b883a 	mov	r5,r2
 8002588:	1809883a 	mov	r4,r3
 800258c:	801b4400 	call	801b440 <__divsi3>
 8002590:	00000206 	br	800259c <kann_layer_layernorm2+0x68>
 8002594:	e13fff17 	ldw	r4,-4(fp)
 8002598:	80002180 	call	8000218 <kad_len>
 800259c:	e0bffa15 	stw	r2,-24(fp)
	alpha = kann_new_leaf2(offset, par, KAD_VAR, 1.0f, 1, n0);
 80025a0:	e0bffa17 	ldw	r2,-24(fp)
 80025a4:	d8800115 	stw	r2,4(sp)
 80025a8:	00800044 	movi	r2,1
 80025ac:	d8800015 	stw	r2,0(sp)
 80025b0:	01cfe034 	movhi	r7,16256
 80025b4:	01800044 	movi	r6,1
 80025b8:	e17ffe17 	ldw	r5,-8(fp)
 80025bc:	e13ffd17 	ldw	r4,-12(fp)
 80025c0:	80022fc0 	call	80022fc <kann_new_leaf2>
 80025c4:	e0bffb15 	stw	r2,-20(fp)
	beta  = kann_new_leaf2(offset, par, KAD_VAR, 0.0f, 1, n0);
 80025c8:	e0bffa17 	ldw	r2,-24(fp)
 80025cc:	d8800115 	stw	r2,4(sp)
 80025d0:	00800044 	movi	r2,1
 80025d4:	d8800015 	stw	r2,0(sp)
 80025d8:	000f883a 	mov	r7,zero
 80025dc:	01800044 	movi	r6,1
 80025e0:	e17ffe17 	ldw	r5,-8(fp)
 80025e4:	e13ffd17 	ldw	r4,-12(fp)
 80025e8:	80022fc0 	call	80022fc <kann_new_leaf2>
 80025ec:	e0bffc15 	stw	r2,-16(fp)
	return kad_add(kad_mul(kad_stdnorm(in), alpha), beta);
 80025f0:	e13fff17 	ldw	r4,-4(fp)
 80025f4:	8005f4c0 	call	8005f4c <kad_stdnorm>
 80025f8:	e17ffb17 	ldw	r5,-20(fp)
 80025fc:	1009883a 	mov	r4,r2
 8002600:	8005b140 	call	8005b14 <kad_mul>
 8002604:	e17ffc17 	ldw	r5,-16(fp)
 8002608:	1009883a 	mov	r4,r2
 800260c:	8005a840 	call	8005a84 <kad_add>
}
 8002610:	e037883a 	mov	sp,fp
 8002614:	dfc00117 	ldw	ra,4(sp)
 8002618:	df000017 	ldw	fp,0(sp)
 800261c:	dec00204 	addi	sp,sp,8
 8002620:	f800283a 	ret

08002624 <cmul_norm2>:

static inline kad_node_t *cmul_norm2(int *offset, kad_node_t **par, kad_node_t *x, kad_node_t *w, int use_norm)
{
 8002624:	f811883a 	mov	r8,ra
 8002628:	802e3940 	call	802e394 <_mcount>
 800262c:	403f883a 	mov	ra,r8
 8002630:	defffa04 	addi	sp,sp,-24
 8002634:	dfc00515 	stw	ra,20(sp)
 8002638:	df000415 	stw	fp,16(sp)
 800263c:	df000404 	addi	fp,sp,16
 8002640:	e13ffc15 	stw	r4,-16(fp)
 8002644:	e17ffd15 	stw	r5,-12(fp)
 8002648:	e1bffe15 	stw	r6,-8(fp)
 800264c:	e1ffff15 	stw	r7,-4(fp)
	return use_norm? kann_layer_layernorm2(offset, par, kad_cmul(x, w)) : kad_cmul(x, w);
 8002650:	e0800217 	ldw	r2,8(fp)
 8002654:	10000826 	beq	r2,zero,8002678 <cmul_norm2+0x54>
 8002658:	e17fff17 	ldw	r5,-4(fp)
 800265c:	e13ffe17 	ldw	r4,-8(fp)
 8002660:	8005b5c0 	call	8005b5c <kad_cmul>
 8002664:	100d883a 	mov	r6,r2
 8002668:	e17ffd17 	ldw	r5,-12(fp)
 800266c:	e13ffc17 	ldw	r4,-16(fp)
 8002670:	80025340 	call	8002534 <kann_layer_layernorm2>
 8002674:	00000306 	br	8002684 <cmul_norm2+0x60>
 8002678:	e17fff17 	ldw	r5,-4(fp)
 800267c:	e13ffe17 	ldw	r4,-8(fp)
 8002680:	8005b5c0 	call	8005b5c <kad_cmul>
}
 8002684:	e037883a 	mov	sp,fp
 8002688:	dfc00117 	ldw	ra,4(sp)
 800268c:	df000017 	ldw	fp,0(sp)
 8002690:	dec00204 	addi	sp,sp,8
 8002694:	f800283a 	ret

08002698 <kann_layer_rnn2>:

kad_node_t *kann_layer_rnn2(int *offset, kad_node_t **par, kad_node_t *in, kad_node_t *h0, int rnn_flag)
{
 8002698:	f811883a 	mov	r8,ra
 800269c:	802e3940 	call	802e394 <_mcount>
 80026a0:	403f883a 	mov	ra,r8
 80026a4:	deffef04 	addi	sp,sp,-68
 80026a8:	dfc01015 	stw	ra,64(sp)
 80026ac:	df000f15 	stw	fp,60(sp)
 80026b0:	df000f04 	addi	fp,sp,60
 80026b4:	e13ffc15 	stw	r4,-16(fp)
 80026b8:	e17ffd15 	stw	r5,-12(fp)
 80026bc:	e1bffe15 	stw	r6,-8(fp)
 80026c0:	e1ffff15 	stw	r7,-4(fp)
	int n0, n1 = h0->d[h0->n_d-1], use_norm = !!(rnn_flag & KANN_RNN_NORM);
 80026c4:	e0bfff17 	ldw	r2,-4(fp)
 80026c8:	10800003 	ldbu	r2,0(r2)
 80026cc:	10803fcc 	andi	r2,r2,255
 80026d0:	10bfffc4 	addi	r2,r2,-1
 80026d4:	e0ffff17 	ldw	r3,-4(fp)
 80026d8:	10800104 	addi	r2,r2,4
 80026dc:	1085883a 	add	r2,r2,r2
 80026e0:	1085883a 	add	r2,r2,r2
 80026e4:	1885883a 	add	r2,r3,r2
 80026e8:	10800017 	ldw	r2,0(r2)
 80026ec:	e0bff515 	stw	r2,-44(fp)
 80026f0:	e0800217 	ldw	r2,8(fp)
 80026f4:	1080008c 	andi	r2,r2,2
 80026f8:	1004c03a 	cmpne	r2,r2,zero
 80026fc:	10803fcc 	andi	r2,r2,255
 8002700:	e0bff615 	stw	r2,-40(fp)
	kad_node_t *t, *w, *u, *b, *out;

	u = kann_new_leaf2(offset, par, KAD_VAR, 0.0f, 2, n1, n1);
 8002704:	e0bff517 	ldw	r2,-44(fp)
 8002708:	d8800215 	stw	r2,8(sp)
 800270c:	e0bff517 	ldw	r2,-44(fp)
 8002710:	d8800115 	stw	r2,4(sp)
 8002714:	00800084 	movi	r2,2
 8002718:	d8800015 	stw	r2,0(sp)
 800271c:	000f883a 	mov	r7,zero
 8002720:	01800044 	movi	r6,1
 8002724:	e17ffd17 	ldw	r5,-12(fp)
 8002728:	e13ffc17 	ldw	r4,-16(fp)
 800272c:	80022fc0 	call	80022fc <kann_new_leaf2>
 8002730:	e0bff715 	stw	r2,-36(fp)
	b = kann_new_leaf2(offset, par, KAD_VAR, 0.0f, 1, n1);
 8002734:	e0bff517 	ldw	r2,-44(fp)
 8002738:	d8800115 	stw	r2,4(sp)
 800273c:	00800044 	movi	r2,1
 8002740:	d8800015 	stw	r2,0(sp)
 8002744:	000f883a 	mov	r7,zero
 8002748:	01800044 	movi	r6,1
 800274c:	e17ffd17 	ldw	r5,-12(fp)
 8002750:	e13ffc17 	ldw	r4,-16(fp)
 8002754:	80022fc0 	call	80022fc <kann_new_leaf2>
 8002758:	e0bff815 	stw	r2,-32(fp)
	t = cmul_norm2(offset, par, h0, u, use_norm);
 800275c:	e0bff617 	ldw	r2,-40(fp)
 8002760:	d8800015 	stw	r2,0(sp)
 8002764:	e1fff717 	ldw	r7,-36(fp)
 8002768:	e1bfff17 	ldw	r6,-4(fp)
 800276c:	e17ffd17 	ldw	r5,-12(fp)
 8002770:	e13ffc17 	ldw	r4,-16(fp)
 8002774:	80026240 	call	8002624 <cmul_norm2>
 8002778:	e0bff415 	stw	r2,-48(fp)
	if (in) {
 800277c:	e0bffe17 	ldw	r2,-8(fp)
 8002780:	10002826 	beq	r2,zero,8002824 <kann_layer_rnn2+0x18c>
		n0 = in->n_d >= 2? kad_len(in) / in->d[0] : kad_len(in);
 8002784:	e0bffe17 	ldw	r2,-8(fp)
 8002788:	10800003 	ldbu	r2,0(r2)
 800278c:	10803fcc 	andi	r2,r2,255
 8002790:	108000b0 	cmpltui	r2,r2,2
 8002794:	1000091e 	bne	r2,zero,80027bc <kann_layer_rnn2+0x124>
 8002798:	e13ffe17 	ldw	r4,-8(fp)
 800279c:	80002180 	call	8000218 <kad_len>
 80027a0:	1007883a 	mov	r3,r2
 80027a4:	e0bffe17 	ldw	r2,-8(fp)
 80027a8:	10800417 	ldw	r2,16(r2)
 80027ac:	100b883a 	mov	r5,r2
 80027b0:	1809883a 	mov	r4,r3
 80027b4:	801b4400 	call	801b440 <__divsi3>
 80027b8:	00000206 	br	80027c4 <kann_layer_rnn2+0x12c>
 80027bc:	e13ffe17 	ldw	r4,-8(fp)
 80027c0:	80002180 	call	8000218 <kad_len>
 80027c4:	e0bff915 	stw	r2,-28(fp)
		w = kann_new_leaf2(offset, par, KAD_VAR, 0.0f, 2, n1, n0);
 80027c8:	e0bff917 	ldw	r2,-28(fp)
 80027cc:	d8800215 	stw	r2,8(sp)
 80027d0:	e0bff517 	ldw	r2,-44(fp)
 80027d4:	d8800115 	stw	r2,4(sp)
 80027d8:	00800084 	movi	r2,2
 80027dc:	d8800015 	stw	r2,0(sp)
 80027e0:	000f883a 	mov	r7,zero
 80027e4:	01800044 	movi	r6,1
 80027e8:	e17ffd17 	ldw	r5,-12(fp)
 80027ec:	e13ffc17 	ldw	r4,-16(fp)
 80027f0:	80022fc0 	call	80022fc <kann_new_leaf2>
 80027f4:	e0bffa15 	stw	r2,-24(fp)
		t = kad_add(cmul_norm2(offset, par, in, w, use_norm), t);
 80027f8:	e0bff617 	ldw	r2,-40(fp)
 80027fc:	d8800015 	stw	r2,0(sp)
 8002800:	e1fffa17 	ldw	r7,-24(fp)
 8002804:	e1bffe17 	ldw	r6,-8(fp)
 8002808:	e17ffd17 	ldw	r5,-12(fp)
 800280c:	e13ffc17 	ldw	r4,-16(fp)
 8002810:	80026240 	call	8002624 <cmul_norm2>
 8002814:	e17ff417 	ldw	r5,-48(fp)
 8002818:	1009883a 	mov	r4,r2
 800281c:	8005a840 	call	8005a84 <kad_add>
 8002820:	e0bff415 	stw	r2,-48(fp)
	}
	out = kad_tanh(kad_add(t, b));
 8002824:	e17ff817 	ldw	r5,-32(fp)
 8002828:	e13ff417 	ldw	r4,-48(fp)
 800282c:	8005a840 	call	8005a84 <kad_add>
 8002830:	1009883a 	mov	r4,r2
 8002834:	8005e4c0 	call	8005e4c <kad_tanh>
 8002838:	e0bffb15 	stw	r2,-20(fp)
	out->pre = h0;
 800283c:	e0bffb17 	ldw	r2,-20(fp)
 8002840:	e0ffff17 	ldw	r3,-4(fp)
 8002844:	10c00f15 	stw	r3,60(r2)
	return out;
 8002848:	e0bffb17 	ldw	r2,-20(fp)
}
 800284c:	e037883a 	mov	sp,fp
 8002850:	dfc00117 	ldw	ra,4(sp)
 8002854:	df000017 	ldw	fp,0(sp)
 8002858:	dec00204 	addi	sp,sp,8
 800285c:	f800283a 	ret

08002860 <kann_layer_gru2>:

kad_node_t *kann_layer_gru2(int *offset, kad_node_t **par, kad_node_t *in, kad_node_t *h0, int rnn_flag)
{
 8002860:	f811883a 	mov	r8,ra
 8002864:	802e3940 	call	802e394 <_mcount>
 8002868:	403f883a 	mov	ra,r8
 800286c:	deffeb04 	addi	sp,sp,-84
 8002870:	dfc01415 	stw	ra,80(sp)
 8002874:	df001315 	stw	fp,76(sp)
 8002878:	dc001215 	stw	r16,72(sp)
 800287c:	df001304 	addi	fp,sp,76
 8002880:	e13ffb15 	stw	r4,-20(fp)
 8002884:	e17ffc15 	stw	r5,-16(fp)
 8002888:	e1bffd15 	stw	r6,-12(fp)
 800288c:	e1fffe15 	stw	r7,-8(fp)
	int n0 = 0, n1 = h0->d[h0->n_d-1], use_norm = !!(rnn_flag & KANN_RNN_NORM);
 8002890:	e03ff015 	stw	zero,-64(fp)
 8002894:	e0bffe17 	ldw	r2,-8(fp)
 8002898:	10800003 	ldbu	r2,0(r2)
 800289c:	10803fcc 	andi	r2,r2,255
 80028a0:	10bfffc4 	addi	r2,r2,-1
 80028a4:	e0fffe17 	ldw	r3,-8(fp)
 80028a8:	10800104 	addi	r2,r2,4
 80028ac:	1085883a 	add	r2,r2,r2
 80028b0:	1085883a 	add	r2,r2,r2
 80028b4:	1885883a 	add	r2,r3,r2
 80028b8:	10800017 	ldw	r2,0(r2)
 80028bc:	e0bff215 	stw	r2,-56(fp)
 80028c0:	e0800217 	ldw	r2,8(fp)
 80028c4:	1080008c 	andi	r2,r2,2
 80028c8:	1004c03a 	cmpne	r2,r2,zero
 80028cc:	10803fcc 	andi	r2,r2,255
 80028d0:	e0bff315 	stw	r2,-52(fp)
	kad_node_t *t, *r, *z, *w, *u, *b, *s, *out;

	if (in) n0 = in->n_d >= 2? kad_len(in) / in->d[0] : kad_len(in);
 80028d4:	e0bffd17 	ldw	r2,-12(fp)
 80028d8:	10001126 	beq	r2,zero,8002920 <kann_layer_gru2+0xc0>
 80028dc:	e0bffd17 	ldw	r2,-12(fp)
 80028e0:	10800003 	ldbu	r2,0(r2)
 80028e4:	10803fcc 	andi	r2,r2,255
 80028e8:	108000b0 	cmpltui	r2,r2,2
 80028ec:	1000091e 	bne	r2,zero,8002914 <kann_layer_gru2+0xb4>
 80028f0:	e13ffd17 	ldw	r4,-12(fp)
 80028f4:	80002180 	call	8000218 <kad_len>
 80028f8:	1007883a 	mov	r3,r2
 80028fc:	e0bffd17 	ldw	r2,-12(fp)
 8002900:	10800417 	ldw	r2,16(r2)
 8002904:	100b883a 	mov	r5,r2
 8002908:	1809883a 	mov	r4,r3
 800290c:	801b4400 	call	801b440 <__divsi3>
 8002910:	00000206 	br	800291c <kann_layer_gru2+0xbc>
 8002914:	e13ffd17 	ldw	r4,-12(fp)
 8002918:	80002180 	call	8000218 <kad_len>
 800291c:	e0bff015 	stw	r2,-64(fp)
	/* z = sigm(x_t * W_z + h_{t-1} * U_z + b_z) */
	u = kann_new_leaf2(offset, par, KAD_VAR, 0.0f, 2, n1, n1);
 8002920:	e0bff217 	ldw	r2,-56(fp)
 8002924:	d8800215 	stw	r2,8(sp)
 8002928:	e0bff217 	ldw	r2,-56(fp)
 800292c:	d8800115 	stw	r2,4(sp)
 8002930:	00800084 	movi	r2,2
 8002934:	d8800015 	stw	r2,0(sp)
 8002938:	000f883a 	mov	r7,zero
 800293c:	01800044 	movi	r6,1
 8002940:	e17ffc17 	ldw	r5,-16(fp)
 8002944:	e13ffb17 	ldw	r4,-20(fp)
 8002948:	80022fc0 	call	80022fc <kann_new_leaf2>
 800294c:	e0bff415 	stw	r2,-48(fp)
	b = kann_new_leaf2(offset, par, KAD_VAR, 0.0f, 1, n1);
 8002950:	e0bff217 	ldw	r2,-56(fp)
 8002954:	d8800115 	stw	r2,4(sp)
 8002958:	00800044 	movi	r2,1
 800295c:	d8800015 	stw	r2,0(sp)
 8002960:	000f883a 	mov	r7,zero
 8002964:	01800044 	movi	r6,1
 8002968:	e17ffc17 	ldw	r5,-16(fp)
 800296c:	e13ffb17 	ldw	r4,-20(fp)
 8002970:	80022fc0 	call	80022fc <kann_new_leaf2>
 8002974:	e0bff515 	stw	r2,-44(fp)
	t = cmul_norm2(offset, par, h0, u, use_norm);
 8002978:	e0bff317 	ldw	r2,-52(fp)
 800297c:	d8800015 	stw	r2,0(sp)
 8002980:	e1fff417 	ldw	r7,-48(fp)
 8002984:	e1bffe17 	ldw	r6,-8(fp)
 8002988:	e17ffc17 	ldw	r5,-16(fp)
 800298c:	e13ffb17 	ldw	r4,-20(fp)
 8002990:	80026240 	call	8002624 <cmul_norm2>
 8002994:	e0bff115 	stw	r2,-60(fp)
	if (in) {
 8002998:	e0bffd17 	ldw	r2,-12(fp)
 800299c:	10001726 	beq	r2,zero,80029fc <kann_layer_gru2+0x19c>
		w = kann_new_leaf2(offset, par, KAD_VAR, 0.0f, 2, n1, n0);
 80029a0:	e0bff017 	ldw	r2,-64(fp)
 80029a4:	d8800215 	stw	r2,8(sp)
 80029a8:	e0bff217 	ldw	r2,-56(fp)
 80029ac:	d8800115 	stw	r2,4(sp)
 80029b0:	00800084 	movi	r2,2
 80029b4:	d8800015 	stw	r2,0(sp)
 80029b8:	000f883a 	mov	r7,zero
 80029bc:	01800044 	movi	r6,1
 80029c0:	e17ffc17 	ldw	r5,-16(fp)
 80029c4:	e13ffb17 	ldw	r4,-20(fp)
 80029c8:	80022fc0 	call	80022fc <kann_new_leaf2>
 80029cc:	e0bff615 	stw	r2,-40(fp)
		t = kad_add(cmul_norm2(offset, par, in, w, use_norm), t);
 80029d0:	e0bff317 	ldw	r2,-52(fp)
 80029d4:	d8800015 	stw	r2,0(sp)
 80029d8:	e1fff617 	ldw	r7,-40(fp)
 80029dc:	e1bffd17 	ldw	r6,-12(fp)
 80029e0:	e17ffc17 	ldw	r5,-16(fp)
 80029e4:	e13ffb17 	ldw	r4,-20(fp)
 80029e8:	80026240 	call	8002624 <cmul_norm2>
 80029ec:	e17ff117 	ldw	r5,-60(fp)
 80029f0:	1009883a 	mov	r4,r2
 80029f4:	8005a840 	call	8005a84 <kad_add>
 80029f8:	e0bff115 	stw	r2,-60(fp)
	}
	z = kad_sigm(kad_add(t, b));
 80029fc:	e17ff517 	ldw	r5,-44(fp)
 8002a00:	e13ff117 	ldw	r4,-60(fp)
 8002a04:	8005a840 	call	8005a84 <kad_add>
 8002a08:	1009883a 	mov	r4,r2
 8002a0c:	8005e0c0 	call	8005e0c <kad_sigm>
 8002a10:	e0bff715 	stw	r2,-36(fp)
	/* r = sigm(x_t * W_r + h_{t-1} * U_r + b_r) */
	u = kann_new_leaf2(offset, par, KAD_VAR, 0.0f, 2, n1, n1);
 8002a14:	e0bff217 	ldw	r2,-56(fp)
 8002a18:	d8800215 	stw	r2,8(sp)
 8002a1c:	e0bff217 	ldw	r2,-56(fp)
 8002a20:	d8800115 	stw	r2,4(sp)
 8002a24:	00800084 	movi	r2,2
 8002a28:	d8800015 	stw	r2,0(sp)
 8002a2c:	000f883a 	mov	r7,zero
 8002a30:	01800044 	movi	r6,1
 8002a34:	e17ffc17 	ldw	r5,-16(fp)
 8002a38:	e13ffb17 	ldw	r4,-20(fp)
 8002a3c:	80022fc0 	call	80022fc <kann_new_leaf2>
 8002a40:	e0bff415 	stw	r2,-48(fp)
	b = kann_new_leaf2(offset, par, KAD_VAR, 0.0f, 1, n1);
 8002a44:	e0bff217 	ldw	r2,-56(fp)
 8002a48:	d8800115 	stw	r2,4(sp)
 8002a4c:	00800044 	movi	r2,1
 8002a50:	d8800015 	stw	r2,0(sp)
 8002a54:	000f883a 	mov	r7,zero
 8002a58:	01800044 	movi	r6,1
 8002a5c:	e17ffc17 	ldw	r5,-16(fp)
 8002a60:	e13ffb17 	ldw	r4,-20(fp)
 8002a64:	80022fc0 	call	80022fc <kann_new_leaf2>
 8002a68:	e0bff515 	stw	r2,-44(fp)
	t = cmul_norm2(offset, par, h0, u, use_norm);
 8002a6c:	e0bff317 	ldw	r2,-52(fp)
 8002a70:	d8800015 	stw	r2,0(sp)
 8002a74:	e1fff417 	ldw	r7,-48(fp)
 8002a78:	e1bffe17 	ldw	r6,-8(fp)
 8002a7c:	e17ffc17 	ldw	r5,-16(fp)
 8002a80:	e13ffb17 	ldw	r4,-20(fp)
 8002a84:	80026240 	call	8002624 <cmul_norm2>
 8002a88:	e0bff115 	stw	r2,-60(fp)
	if (in) {
 8002a8c:	e0bffd17 	ldw	r2,-12(fp)
 8002a90:	10001726 	beq	r2,zero,8002af0 <kann_layer_gru2+0x290>
		w = kann_new_leaf2(offset, par, KAD_VAR, 0.0f, 2, n1, n0);
 8002a94:	e0bff017 	ldw	r2,-64(fp)
 8002a98:	d8800215 	stw	r2,8(sp)
 8002a9c:	e0bff217 	ldw	r2,-56(fp)
 8002aa0:	d8800115 	stw	r2,4(sp)
 8002aa4:	00800084 	movi	r2,2
 8002aa8:	d8800015 	stw	r2,0(sp)
 8002aac:	000f883a 	mov	r7,zero
 8002ab0:	01800044 	movi	r6,1
 8002ab4:	e17ffc17 	ldw	r5,-16(fp)
 8002ab8:	e13ffb17 	ldw	r4,-20(fp)
 8002abc:	80022fc0 	call	80022fc <kann_new_leaf2>
 8002ac0:	e0bff615 	stw	r2,-40(fp)
		t = kad_add(cmul_norm2(offset, par, in, w, use_norm), t);
 8002ac4:	e0bff317 	ldw	r2,-52(fp)
 8002ac8:	d8800015 	stw	r2,0(sp)
 8002acc:	e1fff617 	ldw	r7,-40(fp)
 8002ad0:	e1bffd17 	ldw	r6,-12(fp)
 8002ad4:	e17ffc17 	ldw	r5,-16(fp)
 8002ad8:	e13ffb17 	ldw	r4,-20(fp)
 8002adc:	80026240 	call	8002624 <cmul_norm2>
 8002ae0:	e17ff117 	ldw	r5,-60(fp)
 8002ae4:	1009883a 	mov	r4,r2
 8002ae8:	8005a840 	call	8005a84 <kad_add>
 8002aec:	e0bff115 	stw	r2,-60(fp)
	}
	r = kad_sigm(kad_add(t, b));
 8002af0:	e17ff517 	ldw	r5,-44(fp)
 8002af4:	e13ff117 	ldw	r4,-60(fp)
 8002af8:	8005a840 	call	8005a84 <kad_add>
 8002afc:	1009883a 	mov	r4,r2
 8002b00:	8005e0c0 	call	8005e0c <kad_sigm>
 8002b04:	e0bff815 	stw	r2,-32(fp)
	/* s = tanh(x_t * W_s + (h_{t-1} # r) * U_s + b_s) */
	u = kann_new_leaf2(offset, par, KAD_VAR, 0.0f, 2, n1, n1);
 8002b08:	e0bff217 	ldw	r2,-56(fp)
 8002b0c:	d8800215 	stw	r2,8(sp)
 8002b10:	e0bff217 	ldw	r2,-56(fp)
 8002b14:	d8800115 	stw	r2,4(sp)
 8002b18:	00800084 	movi	r2,2
 8002b1c:	d8800015 	stw	r2,0(sp)
 8002b20:	000f883a 	mov	r7,zero
 8002b24:	01800044 	movi	r6,1
 8002b28:	e17ffc17 	ldw	r5,-16(fp)
 8002b2c:	e13ffb17 	ldw	r4,-20(fp)
 8002b30:	80022fc0 	call	80022fc <kann_new_leaf2>
 8002b34:	e0bff415 	stw	r2,-48(fp)
	b = kann_new_leaf2(offset, par, KAD_VAR, 0.0f, 1, n1);
 8002b38:	e0bff217 	ldw	r2,-56(fp)
 8002b3c:	d8800115 	stw	r2,4(sp)
 8002b40:	00800044 	movi	r2,1
 8002b44:	d8800015 	stw	r2,0(sp)
 8002b48:	000f883a 	mov	r7,zero
 8002b4c:	01800044 	movi	r6,1
 8002b50:	e17ffc17 	ldw	r5,-16(fp)
 8002b54:	e13ffb17 	ldw	r4,-20(fp)
 8002b58:	80022fc0 	call	80022fc <kann_new_leaf2>
 8002b5c:	e0bff515 	stw	r2,-44(fp)
	t = cmul_norm2(offset, par, kad_mul(r, h0), u, use_norm);
 8002b60:	e17ffe17 	ldw	r5,-8(fp)
 8002b64:	e13ff817 	ldw	r4,-32(fp)
 8002b68:	8005b140 	call	8005b14 <kad_mul>
 8002b6c:	1007883a 	mov	r3,r2
 8002b70:	e0bff317 	ldw	r2,-52(fp)
 8002b74:	d8800015 	stw	r2,0(sp)
 8002b78:	e1fff417 	ldw	r7,-48(fp)
 8002b7c:	180d883a 	mov	r6,r3
 8002b80:	e17ffc17 	ldw	r5,-16(fp)
 8002b84:	e13ffb17 	ldw	r4,-20(fp)
 8002b88:	80026240 	call	8002624 <cmul_norm2>
 8002b8c:	e0bff115 	stw	r2,-60(fp)
	if (in) {
 8002b90:	e0bffd17 	ldw	r2,-12(fp)
 8002b94:	10001726 	beq	r2,zero,8002bf4 <kann_layer_gru2+0x394>
		w = kann_new_leaf2(offset, par, KAD_VAR, 0.0f, 2, n1, n0);
 8002b98:	e0bff017 	ldw	r2,-64(fp)
 8002b9c:	d8800215 	stw	r2,8(sp)
 8002ba0:	e0bff217 	ldw	r2,-56(fp)
 8002ba4:	d8800115 	stw	r2,4(sp)
 8002ba8:	00800084 	movi	r2,2
 8002bac:	d8800015 	stw	r2,0(sp)
 8002bb0:	000f883a 	mov	r7,zero
 8002bb4:	01800044 	movi	r6,1
 8002bb8:	e17ffc17 	ldw	r5,-16(fp)
 8002bbc:	e13ffb17 	ldw	r4,-20(fp)
 8002bc0:	80022fc0 	call	80022fc <kann_new_leaf2>
 8002bc4:	e0bff615 	stw	r2,-40(fp)
		t = kad_add(cmul_norm2(offset, par, in, w, use_norm), t);
 8002bc8:	e0bff317 	ldw	r2,-52(fp)
 8002bcc:	d8800015 	stw	r2,0(sp)
 8002bd0:	e1fff617 	ldw	r7,-40(fp)
 8002bd4:	e1bffd17 	ldw	r6,-12(fp)
 8002bd8:	e17ffc17 	ldw	r5,-16(fp)
 8002bdc:	e13ffb17 	ldw	r4,-20(fp)
 8002be0:	80026240 	call	8002624 <cmul_norm2>
 8002be4:	e17ff117 	ldw	r5,-60(fp)
 8002be8:	1009883a 	mov	r4,r2
 8002bec:	8005a840 	call	8005a84 <kad_add>
 8002bf0:	e0bff115 	stw	r2,-60(fp)
	}
	s = kad_tanh(kad_add(t, b));
 8002bf4:	e17ff517 	ldw	r5,-44(fp)
 8002bf8:	e13ff117 	ldw	r4,-60(fp)
 8002bfc:	8005a840 	call	8005a84 <kad_add>
 8002c00:	1009883a 	mov	r4,r2
 8002c04:	8005e4c0 	call	8005e4c <kad_tanh>
 8002c08:	e0bff915 	stw	r2,-28(fp)
	/* h_t = z # h_{t-1} + (1 - z) # s */
	out = kad_add(kad_mul(kad_1minus(z), s), kad_mul(z, h0));
 8002c0c:	e13ff717 	ldw	r4,-36(fp)
 8002c10:	8005ecc0 	call	8005ecc <kad_1minus>
 8002c14:	e17ff917 	ldw	r5,-28(fp)
 8002c18:	1009883a 	mov	r4,r2
 8002c1c:	8005b140 	call	8005b14 <kad_mul>
 8002c20:	1021883a 	mov	r16,r2
 8002c24:	e17ffe17 	ldw	r5,-8(fp)
 8002c28:	e13ff717 	ldw	r4,-36(fp)
 8002c2c:	8005b140 	call	8005b14 <kad_mul>
 8002c30:	100b883a 	mov	r5,r2
 8002c34:	8009883a 	mov	r4,r16
 8002c38:	8005a840 	call	8005a84 <kad_add>
 8002c3c:	e0bffa15 	stw	r2,-24(fp)
	out->pre = h0;
 8002c40:	e0bffa17 	ldw	r2,-24(fp)
 8002c44:	e0fffe17 	ldw	r3,-8(fp)
 8002c48:	10c00f15 	stw	r3,60(r2)
	return out;
 8002c4c:	e0bffa17 	ldw	r2,-24(fp)
}
 8002c50:	e6ffff04 	addi	sp,fp,-4
 8002c54:	dfc00217 	ldw	ra,8(sp)
 8002c58:	df000117 	ldw	fp,4(sp)
 8002c5c:	dc000017 	ldw	r16,0(sp)
 8002c60:	dec00304 	addi	sp,sp,12
 8002c64:	f800283a 	ret

08002c68 <kann_new_leaf>:

/********** APIs without offset & par **********/

kad_node_t *kann_new_leaf(uint8_t flag, float x0_01, int n_d, ...)
{
 8002c68:	f811883a 	mov	r8,ra
 8002c6c:	802e3940 	call	802e394 <_mcount>
 8002c70:	403f883a 	mov	ra,r8
 8002c74:	defff204 	addi	sp,sp,-56
 8002c78:	dfc00c15 	stw	ra,48(sp)
 8002c7c:	df000b15 	stw	fp,44(sp)
 8002c80:	df000b04 	addi	fp,sp,44
 8002c84:	2005883a 	mov	r2,r4
 8002c88:	e17ffe15 	stw	r5,-8(fp)
 8002c8c:	e1bfff15 	stw	r6,-4(fp)
 8002c90:	e1c00215 	stw	r7,8(fp)
 8002c94:	e0bffd05 	stb	r2,-12(fp)
	int32_t i, d[KAD_MAX_DIM];
	va_list ap;
	va_start(ap, n_d); for (i = 0; i < n_d; ++i) d[i] = va_arg(ap, int); va_end(ap);
 8002c98:	e0800204 	addi	r2,fp,8
 8002c9c:	e0bffc15 	stw	r2,-16(fp)
 8002ca0:	e03ff715 	stw	zero,-36(fp)
 8002ca4:	00000e06 	br	8002ce0 <kann_new_leaf+0x78>
 8002ca8:	e0bffc17 	ldw	r2,-16(fp)
 8002cac:	10c00104 	addi	r3,r2,4
 8002cb0:	e0fffc15 	stw	r3,-16(fp)
 8002cb4:	10c00017 	ldw	r3,0(r2)
 8002cb8:	e0bff717 	ldw	r2,-36(fp)
 8002cbc:	1085883a 	add	r2,r2,r2
 8002cc0:	1085883a 	add	r2,r2,r2
 8002cc4:	e13ff704 	addi	r4,fp,-36
 8002cc8:	2085883a 	add	r2,r4,r2
 8002ccc:	10800104 	addi	r2,r2,4
 8002cd0:	10c00015 	stw	r3,0(r2)
 8002cd4:	e0bff717 	ldw	r2,-36(fp)
 8002cd8:	10800044 	addi	r2,r2,1
 8002cdc:	e0bff715 	stw	r2,-36(fp)
 8002ce0:	e0fff717 	ldw	r3,-36(fp)
 8002ce4:	e0bfff17 	ldw	r2,-4(fp)
 8002ce8:	18bfef16 	blt	r3,r2,8002ca8 <kann_new_leaf+0x40>
	return kann_new_leaf_array(0, 0, flag, x0_01, n_d, d);
 8002cec:	e0fffd03 	ldbu	r3,-12(fp)
 8002cf0:	e0bff804 	addi	r2,fp,-32
 8002cf4:	d8800115 	stw	r2,4(sp)
 8002cf8:	e0bfff17 	ldw	r2,-4(fp)
 8002cfc:	d8800015 	stw	r2,0(sp)
 8002d00:	e1fffe17 	ldw	r7,-8(fp)
 8002d04:	180d883a 	mov	r6,r3
 8002d08:	000b883a 	mov	r5,zero
 8002d0c:	0009883a 	mov	r4,zero
 8002d10:	80020180 	call	8002018 <kann_new_leaf_array>
}
 8002d14:	e037883a 	mov	sp,fp
 8002d18:	dfc00117 	ldw	ra,4(sp)
 8002d1c:	df000017 	ldw	fp,0(sp)
 8002d20:	dec00304 	addi	sp,sp,12
 8002d24:	f800283a 	ret

08002d28 <kann_new_scalar>:

kad_node_t *kann_new_scalar(uint8_t flag, float x) { return kann_new_leaf(flag, x, 0); }
 8002d28:	f811883a 	mov	r8,ra
 8002d2c:	802e3940 	call	802e394 <_mcount>
 8002d30:	403f883a 	mov	ra,r8
 8002d34:	defffc04 	addi	sp,sp,-16
 8002d38:	dfc00315 	stw	ra,12(sp)
 8002d3c:	df000215 	stw	fp,8(sp)
 8002d40:	df000204 	addi	fp,sp,8
 8002d44:	2005883a 	mov	r2,r4
 8002d48:	e17fff15 	stw	r5,-4(fp)
 8002d4c:	e0bffe05 	stb	r2,-8(fp)
 8002d50:	e0bffe03 	ldbu	r2,-8(fp)
 8002d54:	000d883a 	mov	r6,zero
 8002d58:	e17fff17 	ldw	r5,-4(fp)
 8002d5c:	1009883a 	mov	r4,r2
 8002d60:	8002c680 	call	8002c68 <kann_new_leaf>
 8002d64:	e037883a 	mov	sp,fp
 8002d68:	dfc00117 	ldw	ra,4(sp)
 8002d6c:	df000017 	ldw	fp,0(sp)
 8002d70:	dec00204 	addi	sp,sp,8
 8002d74:	f800283a 	ret

08002d78 <kann_new_weight>:
kad_node_t *kann_new_weight(int n_row, int n_col) { return kann_new_leaf(KAD_VAR, 0.0f, 2, n_row, n_col); }
 8002d78:	f811883a 	mov	r8,ra
 8002d7c:	802e3940 	call	802e394 <_mcount>
 8002d80:	403f883a 	mov	ra,r8
 8002d84:	defffb04 	addi	sp,sp,-20
 8002d88:	dfc00415 	stw	ra,16(sp)
 8002d8c:	df000315 	stw	fp,12(sp)
 8002d90:	df000304 	addi	fp,sp,12
 8002d94:	e13ffe15 	stw	r4,-8(fp)
 8002d98:	e17fff15 	stw	r5,-4(fp)
 8002d9c:	e0bfff17 	ldw	r2,-4(fp)
 8002da0:	d8800015 	stw	r2,0(sp)
 8002da4:	e1fffe17 	ldw	r7,-8(fp)
 8002da8:	01800084 	movi	r6,2
 8002dac:	000b883a 	mov	r5,zero
 8002db0:	01000044 	movi	r4,1
 8002db4:	8002c680 	call	8002c68 <kann_new_leaf>
 8002db8:	e037883a 	mov	sp,fp
 8002dbc:	dfc00117 	ldw	ra,4(sp)
 8002dc0:	df000017 	ldw	fp,0(sp)
 8002dc4:	dec00204 	addi	sp,sp,8
 8002dc8:	f800283a 	ret

08002dcc <kann_new_vec>:
kad_node_t *kann_new_vec(int n, float x) { return kann_new_leaf(KAD_VAR, x, 1, n); }
 8002dcc:	f811883a 	mov	r8,ra
 8002dd0:	802e3940 	call	802e394 <_mcount>
 8002dd4:	403f883a 	mov	ra,r8
 8002dd8:	defffc04 	addi	sp,sp,-16
 8002ddc:	dfc00315 	stw	ra,12(sp)
 8002de0:	df000215 	stw	fp,8(sp)
 8002de4:	df000204 	addi	fp,sp,8
 8002de8:	e13ffe15 	stw	r4,-8(fp)
 8002dec:	e17fff15 	stw	r5,-4(fp)
 8002df0:	e1fffe17 	ldw	r7,-8(fp)
 8002df4:	01800044 	movi	r6,1
 8002df8:	e17fff17 	ldw	r5,-4(fp)
 8002dfc:	01000044 	movi	r4,1
 8002e00:	8002c680 	call	8002c68 <kann_new_leaf>
 8002e04:	e037883a 	mov	sp,fp
 8002e08:	dfc00117 	ldw	ra,4(sp)
 8002e0c:	df000017 	ldw	fp,0(sp)
 8002e10:	dec00204 	addi	sp,sp,8
 8002e14:	f800283a 	ret

08002e18 <kann_new_bias>:
kad_node_t *kann_new_bias(int n) { return kann_new_vec(n, 0.0f); }
 8002e18:	f811883a 	mov	r8,ra
 8002e1c:	802e3940 	call	802e394 <_mcount>
 8002e20:	403f883a 	mov	ra,r8
 8002e24:	defffd04 	addi	sp,sp,-12
 8002e28:	dfc00215 	stw	ra,8(sp)
 8002e2c:	df000115 	stw	fp,4(sp)
 8002e30:	df000104 	addi	fp,sp,4
 8002e34:	e13fff15 	stw	r4,-4(fp)
 8002e38:	000b883a 	mov	r5,zero
 8002e3c:	e13fff17 	ldw	r4,-4(fp)
 8002e40:	8002dcc0 	call	8002dcc <kann_new_vec>
 8002e44:	e037883a 	mov	sp,fp
 8002e48:	dfc00117 	ldw	ra,4(sp)
 8002e4c:	df000017 	ldw	fp,0(sp)
 8002e50:	dec00204 	addi	sp,sp,8
 8002e54:	f800283a 	ret

08002e58 <kann_new_weight_conv2d>:
kad_node_t *kann_new_weight_conv2d(int n_out, int n_in, int k_row, int k_col) { return kann_new_leaf(KAD_VAR, 0.0f, 4, n_out, n_in, k_row, k_col); }
 8002e58:	f811883a 	mov	r8,ra
 8002e5c:	802e3940 	call	802e394 <_mcount>
 8002e60:	403f883a 	mov	ra,r8
 8002e64:	defff704 	addi	sp,sp,-36
 8002e68:	dfc00815 	stw	ra,32(sp)
 8002e6c:	df000715 	stw	fp,28(sp)
 8002e70:	df000704 	addi	fp,sp,28
 8002e74:	e13ffc15 	stw	r4,-16(fp)
 8002e78:	e17ffd15 	stw	r5,-12(fp)
 8002e7c:	e1bffe15 	stw	r6,-8(fp)
 8002e80:	e1ffff15 	stw	r7,-4(fp)
 8002e84:	e0bfff17 	ldw	r2,-4(fp)
 8002e88:	d8800215 	stw	r2,8(sp)
 8002e8c:	e0bffe17 	ldw	r2,-8(fp)
 8002e90:	d8800115 	stw	r2,4(sp)
 8002e94:	e0bffd17 	ldw	r2,-12(fp)
 8002e98:	d8800015 	stw	r2,0(sp)
 8002e9c:	e1fffc17 	ldw	r7,-16(fp)
 8002ea0:	01800104 	movi	r6,4
 8002ea4:	000b883a 	mov	r5,zero
 8002ea8:	01000044 	movi	r4,1
 8002eac:	8002c680 	call	8002c68 <kann_new_leaf>
 8002eb0:	e037883a 	mov	sp,fp
 8002eb4:	dfc00117 	ldw	ra,4(sp)
 8002eb8:	df000017 	ldw	fp,0(sp)
 8002ebc:	dec00204 	addi	sp,sp,8
 8002ec0:	f800283a 	ret

08002ec4 <kann_new_weight_conv1d>:
kad_node_t *kann_new_weight_conv1d(int n_out, int n_in, int kernel_len) { return kann_new_leaf(KAD_VAR, 0.0f, 3, n_out, n_in, kernel_len); }
 8002ec4:	f811883a 	mov	r8,ra
 8002ec8:	802e3940 	call	802e394 <_mcount>
 8002ecc:	403f883a 	mov	ra,r8
 8002ed0:	defff904 	addi	sp,sp,-28
 8002ed4:	dfc00615 	stw	ra,24(sp)
 8002ed8:	df000515 	stw	fp,20(sp)
 8002edc:	df000504 	addi	fp,sp,20
 8002ee0:	e13ffd15 	stw	r4,-12(fp)
 8002ee4:	e17ffe15 	stw	r5,-8(fp)
 8002ee8:	e1bfff15 	stw	r6,-4(fp)
 8002eec:	e0bfff17 	ldw	r2,-4(fp)
 8002ef0:	d8800115 	stw	r2,4(sp)
 8002ef4:	e0bffe17 	ldw	r2,-8(fp)
 8002ef8:	d8800015 	stw	r2,0(sp)
 8002efc:	e1fffd17 	ldw	r7,-12(fp)
 8002f00:	018000c4 	movi	r6,3
 8002f04:	000b883a 	mov	r5,zero
 8002f08:	01000044 	movi	r4,1
 8002f0c:	8002c680 	call	8002c68 <kann_new_leaf>
 8002f10:	e037883a 	mov	sp,fp
 8002f14:	dfc00117 	ldw	ra,4(sp)
 8002f18:	df000017 	ldw	fp,0(sp)
 8002f1c:	dec00204 	addi	sp,sp,8
 8002f20:	f800283a 	ret

08002f24 <kann_layer_input>:

kad_node_t *kann_layer_input(int n1)
{
 8002f24:	f811883a 	mov	r8,ra
 8002f28:	802e3940 	call	802e394 <_mcount>
 8002f2c:	403f883a 	mov	ra,r8
 8002f30:	defffc04 	addi	sp,sp,-16
 8002f34:	dfc00315 	stw	ra,12(sp)
 8002f38:	df000215 	stw	fp,8(sp)
 8002f3c:	df000204 	addi	fp,sp,8
 8002f40:	e13fff15 	stw	r4,-4(fp)
	kad_node_t *t;
	t = kad_feed(2, 1, n1), t->ext_flag |= KANN_F_IN;
 8002f44:	e1bfff17 	ldw	r6,-4(fp)
 8002f48:	01400044 	movi	r5,1
 8002f4c:	01000084 	movi	r4,2
 8002f50:	80057a40 	call	80057a4 <kad_feed>
 8002f54:	e0bffe15 	stw	r2,-8(fp)
 8002f58:	e0bffe17 	ldw	r2,-8(fp)
 8002f5c:	10800917 	ldw	r2,36(r2)
 8002f60:	10c00054 	ori	r3,r2,1
 8002f64:	e0bffe17 	ldw	r2,-8(fp)
 8002f68:	10c00915 	stw	r3,36(r2)
	return t;
 8002f6c:	e0bffe17 	ldw	r2,-8(fp)
}
 8002f70:	e037883a 	mov	sp,fp
 8002f74:	dfc00117 	ldw	ra,4(sp)
 8002f78:	df000017 	ldw	fp,0(sp)
 8002f7c:	dec00204 	addi	sp,sp,8
 8002f80:	f800283a 	ret

08002f84 <kann_layer_dense>:

kad_node_t *kann_layer_dense(kad_node_t *in, int n1) { return kann_layer_dense2(0, 0, in, n1); }
 8002f84:	f811883a 	mov	r8,ra
 8002f88:	802e3940 	call	802e394 <_mcount>
 8002f8c:	403f883a 	mov	ra,r8
 8002f90:	defffc04 	addi	sp,sp,-16
 8002f94:	dfc00315 	stw	ra,12(sp)
 8002f98:	df000215 	stw	fp,8(sp)
 8002f9c:	df000204 	addi	fp,sp,8
 8002fa0:	e13ffe15 	stw	r4,-8(fp)
 8002fa4:	e17fff15 	stw	r5,-4(fp)
 8002fa8:	e1ffff17 	ldw	r7,-4(fp)
 8002fac:	e1bffe17 	ldw	r6,-8(fp)
 8002fb0:	000b883a 	mov	r5,zero
 8002fb4:	0009883a 	mov	r4,zero
 8002fb8:	80023bc0 	call	80023bc <kann_layer_dense2>
 8002fbc:	e037883a 	mov	sp,fp
 8002fc0:	dfc00117 	ldw	ra,4(sp)
 8002fc4:	df000017 	ldw	fp,0(sp)
 8002fc8:	dec00204 	addi	sp,sp,8
 8002fcc:	f800283a 	ret

08002fd0 <kann_layer_dropout>:
kad_node_t *kann_layer_dropout(kad_node_t *t, float r) { return kann_layer_dropout2(0, 0, t, r); }
 8002fd0:	f811883a 	mov	r8,ra
 8002fd4:	802e3940 	call	802e394 <_mcount>
 8002fd8:	403f883a 	mov	ra,r8
 8002fdc:	defffc04 	addi	sp,sp,-16
 8002fe0:	dfc00315 	stw	ra,12(sp)
 8002fe4:	df000215 	stw	fp,8(sp)
 8002fe8:	df000204 	addi	fp,sp,8
 8002fec:	e13ffe15 	stw	r4,-8(fp)
 8002ff0:	e17fff15 	stw	r5,-4(fp)
 8002ff4:	e1ffff17 	ldw	r7,-4(fp)
 8002ff8:	e1bffe17 	ldw	r6,-8(fp)
 8002ffc:	000b883a 	mov	r5,zero
 8003000:	0009883a 	mov	r4,zero
 8003004:	80024b00 	call	80024b0 <kann_layer_dropout2>
 8003008:	e037883a 	mov	sp,fp
 800300c:	dfc00117 	ldw	ra,4(sp)
 8003010:	df000017 	ldw	fp,0(sp)
 8003014:	dec00204 	addi	sp,sp,8
 8003018:	f800283a 	ret

0800301c <kann_layer_layernorm>:
kad_node_t *kann_layer_layernorm(kad_node_t *in) { return kann_layer_layernorm2(0, 0, in); }
 800301c:	f811883a 	mov	r8,ra
 8003020:	802e3940 	call	802e394 <_mcount>
 8003024:	403f883a 	mov	ra,r8
 8003028:	defffd04 	addi	sp,sp,-12
 800302c:	dfc00215 	stw	ra,8(sp)
 8003030:	df000115 	stw	fp,4(sp)
 8003034:	df000104 	addi	fp,sp,4
 8003038:	e13fff15 	stw	r4,-4(fp)
 800303c:	e1bfff17 	ldw	r6,-4(fp)
 8003040:	000b883a 	mov	r5,zero
 8003044:	0009883a 	mov	r4,zero
 8003048:	80025340 	call	8002534 <kann_layer_layernorm2>
 800304c:	e037883a 	mov	sp,fp
 8003050:	dfc00117 	ldw	ra,4(sp)
 8003054:	df000017 	ldw	fp,0(sp)
 8003058:	dec00204 	addi	sp,sp,8
 800305c:	f800283a 	ret

08003060 <kann_layer_rnn>:

kad_node_t *kann_layer_rnn(kad_node_t *in, int n1, int rnn_flag)
{
 8003060:	f811883a 	mov	r8,ra
 8003064:	802e3940 	call	802e394 <_mcount>
 8003068:	403f883a 	mov	ra,r8
 800306c:	defff904 	addi	sp,sp,-28
 8003070:	dfc00615 	stw	ra,24(sp)
 8003074:	df000515 	stw	fp,20(sp)
 8003078:	df000504 	addi	fp,sp,20
 800307c:	e13ffd15 	stw	r4,-12(fp)
 8003080:	e17ffe15 	stw	r5,-8(fp)
 8003084:	e1bfff15 	stw	r6,-4(fp)
	kad_node_t *h0;
	h0 = (rnn_flag & KANN_RNN_VAR_H0)? kad_var(0, 0, 2, 1, n1) : kad_const(0, 2, 1, n1);
 8003088:	e0bfff17 	ldw	r2,-4(fp)
 800308c:	1080004c 	andi	r2,r2,1
 8003090:	10000826 	beq	r2,zero,80030b4 <kann_layer_rnn+0x54>
 8003094:	e0bffe17 	ldw	r2,-8(fp)
 8003098:	d8800015 	stw	r2,0(sp)
 800309c:	01c00044 	movi	r7,1
 80030a0:	01800084 	movi	r6,2
 80030a4:	000b883a 	mov	r5,zero
 80030a8:	0009883a 	mov	r4,zero
 80030ac:	80058100 	call	8005810 <kad_var>
 80030b0:	00000506 	br	80030c8 <kann_layer_rnn+0x68>
 80030b4:	e1fffe17 	ldw	r7,-8(fp)
 80030b8:	01800044 	movi	r6,1
 80030bc:	01400084 	movi	r5,2
 80030c0:	0009883a 	mov	r4,zero
 80030c4:	80057380 	call	8005738 <kad_const>
 80030c8:	e0bffc15 	stw	r2,-16(fp)
	h0->x = (float*)calloc(n1, sizeof(float));
 80030cc:	e0bffe17 	ldw	r2,-8(fp)
 80030d0:	01400104 	movi	r5,4
 80030d4:	1009883a 	mov	r4,r2
 80030d8:	801f5b80 	call	801f5b8 <calloc>
 80030dc:	1007883a 	mov	r3,r2
 80030e0:	e0bffc17 	ldw	r2,-16(fp)
 80030e4:	10c00a15 	stw	r3,40(r2)
	return kann_layer_rnn2(0, 0, in, h0, rnn_flag);
 80030e8:	e0bfff17 	ldw	r2,-4(fp)
 80030ec:	d8800015 	stw	r2,0(sp)
 80030f0:	e1fffc17 	ldw	r7,-16(fp)
 80030f4:	e1bffd17 	ldw	r6,-12(fp)
 80030f8:	000b883a 	mov	r5,zero
 80030fc:	0009883a 	mov	r4,zero
 8003100:	80026980 	call	8002698 <kann_layer_rnn2>
}
 8003104:	e037883a 	mov	sp,fp
 8003108:	dfc00117 	ldw	ra,4(sp)
 800310c:	df000017 	ldw	fp,0(sp)
 8003110:	dec00204 	addi	sp,sp,8
 8003114:	f800283a 	ret

08003118 <kann_layer_gru>:

kad_node_t *kann_layer_gru(kad_node_t *in, int n1, int rnn_flag)
{
 8003118:	f811883a 	mov	r8,ra
 800311c:	802e3940 	call	802e394 <_mcount>
 8003120:	403f883a 	mov	ra,r8
 8003124:	defff904 	addi	sp,sp,-28
 8003128:	dfc00615 	stw	ra,24(sp)
 800312c:	df000515 	stw	fp,20(sp)
 8003130:	df000504 	addi	fp,sp,20
 8003134:	e13ffd15 	stw	r4,-12(fp)
 8003138:	e17ffe15 	stw	r5,-8(fp)
 800313c:	e1bfff15 	stw	r6,-4(fp)
	kad_node_t *h0;
	h0 = (rnn_flag & KANN_RNN_VAR_H0)? kad_var(0, 0, 2, 1, n1) : kad_const(0, 2, 1, n1);
 8003140:	e0bfff17 	ldw	r2,-4(fp)
 8003144:	1080004c 	andi	r2,r2,1
 8003148:	10000826 	beq	r2,zero,800316c <kann_layer_gru+0x54>
 800314c:	e0bffe17 	ldw	r2,-8(fp)
 8003150:	d8800015 	stw	r2,0(sp)
 8003154:	01c00044 	movi	r7,1
 8003158:	01800084 	movi	r6,2
 800315c:	000b883a 	mov	r5,zero
 8003160:	0009883a 	mov	r4,zero
 8003164:	80058100 	call	8005810 <kad_var>
 8003168:	00000506 	br	8003180 <kann_layer_gru+0x68>
 800316c:	e1fffe17 	ldw	r7,-8(fp)
 8003170:	01800044 	movi	r6,1
 8003174:	01400084 	movi	r5,2
 8003178:	0009883a 	mov	r4,zero
 800317c:	80057380 	call	8005738 <kad_const>
 8003180:	e0bffc15 	stw	r2,-16(fp)
	h0->x = (float*)calloc(n1, sizeof(float));
 8003184:	e0bffe17 	ldw	r2,-8(fp)
 8003188:	01400104 	movi	r5,4
 800318c:	1009883a 	mov	r4,r2
 8003190:	801f5b80 	call	801f5b8 <calloc>
 8003194:	1007883a 	mov	r3,r2
 8003198:	e0bffc17 	ldw	r2,-16(fp)
 800319c:	10c00a15 	stw	r3,40(r2)
	return kann_layer_gru2(0, 0, in, h0, rnn_flag);
 80031a0:	e0bfff17 	ldw	r2,-4(fp)
 80031a4:	d8800015 	stw	r2,0(sp)
 80031a8:	e1fffc17 	ldw	r7,-16(fp)
 80031ac:	e1bffd17 	ldw	r6,-12(fp)
 80031b0:	000b883a 	mov	r5,zero
 80031b4:	0009883a 	mov	r4,zero
 80031b8:	80028600 	call	8002860 <kann_layer_gru2>
}
 80031bc:	e037883a 	mov	sp,fp
 80031c0:	dfc00117 	ldw	ra,4(sp)
 80031c4:	df000017 	ldw	fp,0(sp)
 80031c8:	dec00204 	addi	sp,sp,8
 80031cc:	f800283a 	ret

080031d0 <kann_cmul_norm>:

static kad_node_t *kann_cmul_norm(kad_node_t *x, kad_node_t *w)
{
 80031d0:	f811883a 	mov	r8,ra
 80031d4:	802e3940 	call	802e394 <_mcount>
 80031d8:	403f883a 	mov	ra,r8
 80031dc:	defffc04 	addi	sp,sp,-16
 80031e0:	dfc00315 	stw	ra,12(sp)
 80031e4:	df000215 	stw	fp,8(sp)
 80031e8:	df000204 	addi	fp,sp,8
 80031ec:	e13ffe15 	stw	r4,-8(fp)
 80031f0:	e17fff15 	stw	r5,-4(fp)
	return kann_layer_layernorm(kad_cmul(x, w));
 80031f4:	e17fff17 	ldw	r5,-4(fp)
 80031f8:	e13ffe17 	ldw	r4,-8(fp)
 80031fc:	8005b5c0 	call	8005b5c <kad_cmul>
 8003200:	1009883a 	mov	r4,r2
 8003204:	800301c0 	call	800301c <kann_layer_layernorm>
}
 8003208:	e037883a 	mov	sp,fp
 800320c:	dfc00117 	ldw	ra,4(sp)
 8003210:	df000017 	ldw	fp,0(sp)
 8003214:	dec00204 	addi	sp,sp,8
 8003218:	f800283a 	ret

0800321c <kann_layer_lstm>:

kad_node_t *kann_layer_lstm(kad_node_t *in, int n1, int rnn_flag)
{
 800321c:	f811883a 	mov	r8,ra
 8003220:	802e3940 	call	802e394 <_mcount>
 8003224:	403f883a 	mov	ra,r8
 8003228:	deffec04 	addi	sp,sp,-80
 800322c:	dfc01315 	stw	ra,76(sp)
 8003230:	df001215 	stw	fp,72(sp)
 8003234:	dc001115 	stw	r16,68(sp)
 8003238:	df001204 	addi	fp,sp,72
 800323c:	e13ffc15 	stw	r4,-16(fp)
 8003240:	e17ffd15 	stw	r5,-12(fp)
 8003244:	e1bffe15 	stw	r6,-8(fp)
	int n0;
	kad_node_t *i, *f, *o, *g, *w, *u, *b, *h0, *c0, *c, *out;
	kad_node_t *(*cmul)(kad_node_t*, kad_node_t*) = (rnn_flag & KANN_RNN_NORM)? kann_cmul_norm : kad_cmul;
 8003248:	e0bffe17 	ldw	r2,-8(fp)
 800324c:	1080008c 	andi	r2,r2,2
 8003250:	10000326 	beq	r2,zero,8003260 <kann_layer_lstm+0x44>
 8003254:	00820034 	movhi	r2,2048
 8003258:	108c7404 	addi	r2,r2,12752
 800325c:	00000206 	br	8003268 <kann_layer_lstm+0x4c>
 8003260:	00820034 	movhi	r2,2048
 8003264:	1096d704 	addi	r2,r2,23388
 8003268:	e0bff015 	stw	r2,-64(fp)

	n0 = in->n_d >= 2? kad_len(in) / in->d[0] : kad_len(in);
 800326c:	e0bffc17 	ldw	r2,-16(fp)
 8003270:	10800003 	ldbu	r2,0(r2)
 8003274:	10803fcc 	andi	r2,r2,255
 8003278:	108000b0 	cmpltui	r2,r2,2
 800327c:	1000091e 	bne	r2,zero,80032a4 <kann_layer_lstm+0x88>
 8003280:	e13ffc17 	ldw	r4,-16(fp)
 8003284:	80002180 	call	8000218 <kad_len>
 8003288:	1007883a 	mov	r3,r2
 800328c:	e0bffc17 	ldw	r2,-16(fp)
 8003290:	10800417 	ldw	r2,16(r2)
 8003294:	100b883a 	mov	r5,r2
 8003298:	1809883a 	mov	r4,r3
 800329c:	801b4400 	call	801b440 <__divsi3>
 80032a0:	00000206 	br	80032ac <kann_layer_lstm+0x90>
 80032a4:	e13ffc17 	ldw	r4,-16(fp)
 80032a8:	80002180 	call	8000218 <kad_len>
 80032ac:	e0bff115 	stw	r2,-60(fp)
	h0 = (rnn_flag & KANN_RNN_VAR_H0)? kad_var(0, 0, 2, 1, n1) : kad_const(0, 2, 1, n1);
 80032b0:	e0bffe17 	ldw	r2,-8(fp)
 80032b4:	1080004c 	andi	r2,r2,1
 80032b8:	10000826 	beq	r2,zero,80032dc <kann_layer_lstm+0xc0>
 80032bc:	e0bffd17 	ldw	r2,-12(fp)
 80032c0:	d8800015 	stw	r2,0(sp)
 80032c4:	01c00044 	movi	r7,1
 80032c8:	01800084 	movi	r6,2
 80032cc:	000b883a 	mov	r5,zero
 80032d0:	0009883a 	mov	r4,zero
 80032d4:	80058100 	call	8005810 <kad_var>
 80032d8:	00000506 	br	80032f0 <kann_layer_lstm+0xd4>
 80032dc:	e1fffd17 	ldw	r7,-12(fp)
 80032e0:	01800044 	movi	r6,1
 80032e4:	01400084 	movi	r5,2
 80032e8:	0009883a 	mov	r4,zero
 80032ec:	80057380 	call	8005738 <kad_const>
 80032f0:	e0bff215 	stw	r2,-56(fp)
	h0->x = (float*)calloc(n1, sizeof(float));
 80032f4:	e0bffd17 	ldw	r2,-12(fp)
 80032f8:	01400104 	movi	r5,4
 80032fc:	1009883a 	mov	r4,r2
 8003300:	801f5b80 	call	801f5b8 <calloc>
 8003304:	1007883a 	mov	r3,r2
 8003308:	e0bff217 	ldw	r2,-56(fp)
 800330c:	10c00a15 	stw	r3,40(r2)
	c0 = (rnn_flag & KANN_RNN_VAR_H0)? kad_var(0, 0, 2, 1, n1) : kad_const(0, 2, 1, n1);
 8003310:	e0bffe17 	ldw	r2,-8(fp)
 8003314:	1080004c 	andi	r2,r2,1
 8003318:	10000826 	beq	r2,zero,800333c <kann_layer_lstm+0x120>
 800331c:	e0bffd17 	ldw	r2,-12(fp)
 8003320:	d8800015 	stw	r2,0(sp)
 8003324:	01c00044 	movi	r7,1
 8003328:	01800084 	movi	r6,2
 800332c:	000b883a 	mov	r5,zero
 8003330:	0009883a 	mov	r4,zero
 8003334:	80058100 	call	8005810 <kad_var>
 8003338:	00000506 	br	8003350 <kann_layer_lstm+0x134>
 800333c:	e1fffd17 	ldw	r7,-12(fp)
 8003340:	01800044 	movi	r6,1
 8003344:	01400084 	movi	r5,2
 8003348:	0009883a 	mov	r4,zero
 800334c:	80057380 	call	8005738 <kad_const>
 8003350:	e0bff315 	stw	r2,-52(fp)
	c0->x = (float*)calloc(n1, sizeof(float));
 8003354:	e0bffd17 	ldw	r2,-12(fp)
 8003358:	01400104 	movi	r5,4
 800335c:	1009883a 	mov	r4,r2
 8003360:	801f5b80 	call	801f5b8 <calloc>
 8003364:	1007883a 	mov	r3,r2
 8003368:	e0bff317 	ldw	r2,-52(fp)
 800336c:	10c00a15 	stw	r3,40(r2)

	/* i = sigm(x_t * W_i + h_{t-1} * U_i + b_i) */
	w = kann_new_weight(n1, n0);
 8003370:	e17ff117 	ldw	r5,-60(fp)
 8003374:	e13ffd17 	ldw	r4,-12(fp)
 8003378:	8002d780 	call	8002d78 <kann_new_weight>
 800337c:	e0bff415 	stw	r2,-48(fp)
	u = kann_new_weight(n1, n1);
 8003380:	e17ffd17 	ldw	r5,-12(fp)
 8003384:	e13ffd17 	ldw	r4,-12(fp)
 8003388:	8002d780 	call	8002d78 <kann_new_weight>
 800338c:	e0bff515 	stw	r2,-44(fp)
	b = kann_new_bias(n1);
 8003390:	e13ffd17 	ldw	r4,-12(fp)
 8003394:	8002e180 	call	8002e18 <kann_new_bias>
 8003398:	e0bff615 	stw	r2,-40(fp)
	i = kad_sigm(kad_add(kad_add(cmul(in, w), cmul(h0, u)), b));
 800339c:	e0bff017 	ldw	r2,-64(fp)
 80033a0:	e17ff417 	ldw	r5,-48(fp)
 80033a4:	e13ffc17 	ldw	r4,-16(fp)
 80033a8:	103ee83a 	callr	r2
 80033ac:	1021883a 	mov	r16,r2
 80033b0:	e0bff017 	ldw	r2,-64(fp)
 80033b4:	e17ff517 	ldw	r5,-44(fp)
 80033b8:	e13ff217 	ldw	r4,-56(fp)
 80033bc:	103ee83a 	callr	r2
 80033c0:	100b883a 	mov	r5,r2
 80033c4:	8009883a 	mov	r4,r16
 80033c8:	8005a840 	call	8005a84 <kad_add>
 80033cc:	e17ff617 	ldw	r5,-40(fp)
 80033d0:	1009883a 	mov	r4,r2
 80033d4:	8005a840 	call	8005a84 <kad_add>
 80033d8:	1009883a 	mov	r4,r2
 80033dc:	8005e0c0 	call	8005e0c <kad_sigm>
 80033e0:	e0bff715 	stw	r2,-36(fp)
	/* f = sigm(x_t * W_f + h_{t-1} * U_f + b_f) */
	w = kann_new_weight(n1, n0);
 80033e4:	e17ff117 	ldw	r5,-60(fp)
 80033e8:	e13ffd17 	ldw	r4,-12(fp)
 80033ec:	8002d780 	call	8002d78 <kann_new_weight>
 80033f0:	e0bff415 	stw	r2,-48(fp)
	u = kann_new_weight(n1, n1);
 80033f4:	e17ffd17 	ldw	r5,-12(fp)
 80033f8:	e13ffd17 	ldw	r4,-12(fp)
 80033fc:	8002d780 	call	8002d78 <kann_new_weight>
 8003400:	e0bff515 	stw	r2,-44(fp)
	b = kann_new_vec(n1, 1.0f); /* see Jozefowicz et al on using a large bias */
 8003404:	014fe034 	movhi	r5,16256
 8003408:	e13ffd17 	ldw	r4,-12(fp)
 800340c:	8002dcc0 	call	8002dcc <kann_new_vec>
 8003410:	e0bff615 	stw	r2,-40(fp)
	f = kad_sigm(kad_add(kad_add(cmul(in, w), cmul(h0, u)), b));
 8003414:	e0bff017 	ldw	r2,-64(fp)
 8003418:	e17ff417 	ldw	r5,-48(fp)
 800341c:	e13ffc17 	ldw	r4,-16(fp)
 8003420:	103ee83a 	callr	r2
 8003424:	1021883a 	mov	r16,r2
 8003428:	e0bff017 	ldw	r2,-64(fp)
 800342c:	e17ff517 	ldw	r5,-44(fp)
 8003430:	e13ff217 	ldw	r4,-56(fp)
 8003434:	103ee83a 	callr	r2
 8003438:	100b883a 	mov	r5,r2
 800343c:	8009883a 	mov	r4,r16
 8003440:	8005a840 	call	8005a84 <kad_add>
 8003444:	e17ff617 	ldw	r5,-40(fp)
 8003448:	1009883a 	mov	r4,r2
 800344c:	8005a840 	call	8005a84 <kad_add>
 8003450:	1009883a 	mov	r4,r2
 8003454:	8005e0c0 	call	8005e0c <kad_sigm>
 8003458:	e0bff815 	stw	r2,-32(fp)
	/* o = sigm(x_t * W_o + h_{t-1} * U_o + b_o) */
	w = kann_new_weight(n1, n0);
 800345c:	e17ff117 	ldw	r5,-60(fp)
 8003460:	e13ffd17 	ldw	r4,-12(fp)
 8003464:	8002d780 	call	8002d78 <kann_new_weight>
 8003468:	e0bff415 	stw	r2,-48(fp)
	u = kann_new_weight(n1, n1);
 800346c:	e17ffd17 	ldw	r5,-12(fp)
 8003470:	e13ffd17 	ldw	r4,-12(fp)
 8003474:	8002d780 	call	8002d78 <kann_new_weight>
 8003478:	e0bff515 	stw	r2,-44(fp)
	b = kann_new_bias(n1);
 800347c:	e13ffd17 	ldw	r4,-12(fp)
 8003480:	8002e180 	call	8002e18 <kann_new_bias>
 8003484:	e0bff615 	stw	r2,-40(fp)
	o = kad_sigm(kad_add(kad_add(cmul(in, w), cmul(h0, u)), b));
 8003488:	e0bff017 	ldw	r2,-64(fp)
 800348c:	e17ff417 	ldw	r5,-48(fp)
 8003490:	e13ffc17 	ldw	r4,-16(fp)
 8003494:	103ee83a 	callr	r2
 8003498:	1021883a 	mov	r16,r2
 800349c:	e0bff017 	ldw	r2,-64(fp)
 80034a0:	e17ff517 	ldw	r5,-44(fp)
 80034a4:	e13ff217 	ldw	r4,-56(fp)
 80034a8:	103ee83a 	callr	r2
 80034ac:	100b883a 	mov	r5,r2
 80034b0:	8009883a 	mov	r4,r16
 80034b4:	8005a840 	call	8005a84 <kad_add>
 80034b8:	e17ff617 	ldw	r5,-40(fp)
 80034bc:	1009883a 	mov	r4,r2
 80034c0:	8005a840 	call	8005a84 <kad_add>
 80034c4:	1009883a 	mov	r4,r2
 80034c8:	8005e0c0 	call	8005e0c <kad_sigm>
 80034cc:	e0bff915 	stw	r2,-28(fp)
	/* g = tanh(x_t * W_g + h_{t-1} * U_g + b_g) */
	w = kann_new_weight(n1, n0);
 80034d0:	e17ff117 	ldw	r5,-60(fp)
 80034d4:	e13ffd17 	ldw	r4,-12(fp)
 80034d8:	8002d780 	call	8002d78 <kann_new_weight>
 80034dc:	e0bff415 	stw	r2,-48(fp)
	u = kann_new_weight(n1, n1);
 80034e0:	e17ffd17 	ldw	r5,-12(fp)
 80034e4:	e13ffd17 	ldw	r4,-12(fp)
 80034e8:	8002d780 	call	8002d78 <kann_new_weight>
 80034ec:	e0bff515 	stw	r2,-44(fp)
	b = kann_new_bias(n1);
 80034f0:	e13ffd17 	ldw	r4,-12(fp)
 80034f4:	8002e180 	call	8002e18 <kann_new_bias>
 80034f8:	e0bff615 	stw	r2,-40(fp)
	g = kad_tanh(kad_add(kad_add(cmul(in, w), cmul(h0, u)), b));
 80034fc:	e0bff017 	ldw	r2,-64(fp)
 8003500:	e17ff417 	ldw	r5,-48(fp)
 8003504:	e13ffc17 	ldw	r4,-16(fp)
 8003508:	103ee83a 	callr	r2
 800350c:	1021883a 	mov	r16,r2
 8003510:	e0bff017 	ldw	r2,-64(fp)
 8003514:	e17ff517 	ldw	r5,-44(fp)
 8003518:	e13ff217 	ldw	r4,-56(fp)
 800351c:	103ee83a 	callr	r2
 8003520:	100b883a 	mov	r5,r2
 8003524:	8009883a 	mov	r4,r16
 8003528:	8005a840 	call	8005a84 <kad_add>
 800352c:	e17ff617 	ldw	r5,-40(fp)
 8003530:	1009883a 	mov	r4,r2
 8003534:	8005a840 	call	8005a84 <kad_add>
 8003538:	1009883a 	mov	r4,r2
 800353c:	8005e4c0 	call	8005e4c <kad_tanh>
 8003540:	e0bffa15 	stw	r2,-24(fp)
	/* c_t = c_{t-1} # f + g # i */
	c = kad_add(kad_mul(f, c0), kad_mul(g, i)); /* can't be kad_mul(c0, f)!!! */
 8003544:	e17ff317 	ldw	r5,-52(fp)
 8003548:	e13ff817 	ldw	r4,-32(fp)
 800354c:	8005b140 	call	8005b14 <kad_mul>
 8003550:	1021883a 	mov	r16,r2
 8003554:	e17ff717 	ldw	r5,-36(fp)
 8003558:	e13ffa17 	ldw	r4,-24(fp)
 800355c:	8005b140 	call	8005b14 <kad_mul>
 8003560:	100b883a 	mov	r5,r2
 8003564:	8009883a 	mov	r4,r16
 8003568:	8005a840 	call	8005a84 <kad_add>
 800356c:	e0bfef15 	stw	r2,-68(fp)
	c->pre = c0;
 8003570:	e0bfef17 	ldw	r2,-68(fp)
 8003574:	e0fff317 	ldw	r3,-52(fp)
 8003578:	10c00f15 	stw	r3,60(r2)
	/* h_t = tanh(c_t) # o */
	if (rnn_flag & KANN_RNN_NORM) c = kann_layer_layernorm(c); /* see Ba et al (2016) about how to apply layer normalization to LSTM */
 800357c:	e0bffe17 	ldw	r2,-8(fp)
 8003580:	1080008c 	andi	r2,r2,2
 8003584:	10000326 	beq	r2,zero,8003594 <kann_layer_lstm+0x378>
 8003588:	e13fef17 	ldw	r4,-68(fp)
 800358c:	800301c0 	call	800301c <kann_layer_layernorm>
 8003590:	e0bfef15 	stw	r2,-68(fp)
	out = kad_mul(kad_tanh(c), o);
 8003594:	e13fef17 	ldw	r4,-68(fp)
 8003598:	8005e4c0 	call	8005e4c <kad_tanh>
 800359c:	e17ff917 	ldw	r5,-28(fp)
 80035a0:	1009883a 	mov	r4,r2
 80035a4:	8005b140 	call	8005b14 <kad_mul>
 80035a8:	e0bffb15 	stw	r2,-20(fp)
	out->pre = h0;
 80035ac:	e0bffb17 	ldw	r2,-20(fp)
 80035b0:	e0fff217 	ldw	r3,-56(fp)
 80035b4:	10c00f15 	stw	r3,60(r2)
	return out;
 80035b8:	e0bffb17 	ldw	r2,-20(fp)
}
 80035bc:	e6ffff04 	addi	sp,fp,-4
 80035c0:	dfc00217 	ldw	ra,8(sp)
 80035c4:	df000117 	ldw	fp,4(sp)
 80035c8:	dc000017 	ldw	r16,0(sp)
 80035cc:	dec00304 	addi	sp,sp,12
 80035d0:	f800283a 	ret

080035d4 <kann_layer_conv2d>:

kad_node_t *kann_layer_conv2d(kad_node_t *in, int n_flt, int k_rows, int k_cols, int stride_r, int stride_c, int pad_r, int pad_c)
{
 80035d4:	f811883a 	mov	r8,ra
 80035d8:	802e3940 	call	802e394 <_mcount>
 80035dc:	403f883a 	mov	ra,r8
 80035e0:	defff704 	addi	sp,sp,-36
 80035e4:	dfc00815 	stw	ra,32(sp)
 80035e8:	df000715 	stw	fp,28(sp)
 80035ec:	df000704 	addi	fp,sp,28
 80035f0:	e13ffc15 	stw	r4,-16(fp)
 80035f4:	e17ffd15 	stw	r5,-12(fp)
 80035f8:	e1bffe15 	stw	r6,-8(fp)
 80035fc:	e1ffff15 	stw	r7,-4(fp)
	kad_node_t *w;
	w = kann_new_weight_conv2d(n_flt, in->d[1], k_rows, k_cols);
 8003600:	e0bffc17 	ldw	r2,-16(fp)
 8003604:	10800517 	ldw	r2,20(r2)
 8003608:	e1ffff17 	ldw	r7,-4(fp)
 800360c:	e1bffe17 	ldw	r6,-8(fp)
 8003610:	100b883a 	mov	r5,r2
 8003614:	e13ffd17 	ldw	r4,-12(fp)
 8003618:	8002e580 	call	8002e58 <kann_new_weight_conv2d>
 800361c:	e0bffb15 	stw	r2,-20(fp)
	return kad_conv2d(in, w, stride_r, stride_c, pad_r, pad_c);
 8003620:	e0800517 	ldw	r2,20(fp)
 8003624:	d8800115 	stw	r2,4(sp)
 8003628:	e0800417 	ldw	r2,16(fp)
 800362c:	d8800015 	stw	r2,0(sp)
 8003630:	e1c00317 	ldw	r7,12(fp)
 8003634:	e1800217 	ldw	r6,8(fp)
 8003638:	e17ffb17 	ldw	r5,-20(fp)
 800363c:	e13ffc17 	ldw	r4,-16(fp)
 8003640:	80061740 	call	8006174 <kad_conv2d>
}
 8003644:	e037883a 	mov	sp,fp
 8003648:	dfc00117 	ldw	ra,4(sp)
 800364c:	df000017 	ldw	fp,0(sp)
 8003650:	dec00204 	addi	sp,sp,8
 8003654:	f800283a 	ret

08003658 <kann_layer_conv1d>:

kad_node_t *kann_layer_conv1d(kad_node_t *in, int n_flt, int k_size, int stride, int pad)
{
 8003658:	f811883a 	mov	r8,ra
 800365c:	802e3940 	call	802e394 <_mcount>
 8003660:	403f883a 	mov	ra,r8
 8003664:	defff904 	addi	sp,sp,-28
 8003668:	dfc00615 	stw	ra,24(sp)
 800366c:	df000515 	stw	fp,20(sp)
 8003670:	df000504 	addi	fp,sp,20
 8003674:	e13ffc15 	stw	r4,-16(fp)
 8003678:	e17ffd15 	stw	r5,-12(fp)
 800367c:	e1bffe15 	stw	r6,-8(fp)
 8003680:	e1ffff15 	stw	r7,-4(fp)
	kad_node_t *w;
	w = kann_new_weight_conv1d(n_flt, in->d[1], k_size);
 8003684:	e0bffc17 	ldw	r2,-16(fp)
 8003688:	10800517 	ldw	r2,20(r2)
 800368c:	e1bffe17 	ldw	r6,-8(fp)
 8003690:	100b883a 	mov	r5,r2
 8003694:	e13ffd17 	ldw	r4,-12(fp)
 8003698:	8002ec40 	call	8002ec4 <kann_new_weight_conv1d>
 800369c:	e0bffb15 	stw	r2,-20(fp)
	return kad_conv1d(in, w, stride, pad);
 80036a0:	e1c00217 	ldw	r7,8(fp)
 80036a4:	e1bfff17 	ldw	r6,-4(fp)
 80036a8:	e17ffb17 	ldw	r5,-20(fp)
 80036ac:	e13ffc17 	ldw	r4,-16(fp)
 80036b0:	800640c0 	call	800640c <kad_conv1d>
}
 80036b4:	e037883a 	mov	sp,fp
 80036b8:	dfc00117 	ldw	ra,4(sp)
 80036bc:	df000017 	ldw	fp,0(sp)
 80036c0:	dec00204 	addi	sp,sp,8
 80036c4:	f800283a 	ret

080036c8 <kann_layer_cost>:

kad_node_t *kann_layer_cost(kad_node_t *t, int n_out, int cost_type)
{
 80036c8:	f811883a 	mov	r8,ra
 80036cc:	802e3940 	call	802e394 <_mcount>
 80036d0:	403f883a 	mov	ra,r8
 80036d4:	defff904 	addi	sp,sp,-28
 80036d8:	dfc00615 	stw	ra,24(sp)
 80036dc:	df000515 	stw	fp,20(sp)
 80036e0:	df000504 	addi	fp,sp,20
 80036e4:	e13ffd15 	stw	r4,-12(fp)
 80036e8:	e17ffe15 	stw	r5,-8(fp)
 80036ec:	e1bfff15 	stw	r6,-4(fp)
	kad_node_t *cost = 0, *truth = 0;
 80036f0:	e03ffb15 	stw	zero,-20(fp)
 80036f4:	e03ffc15 	stw	zero,-16(fp)
	assert(cost_type == KANN_C_CEB || cost_type == KANN_C_CEM || cost_type == KANN_C_CEB_NEG || cost_type == KANN_C_MSE);
 80036f8:	e0bfff17 	ldw	r2,-4(fp)
 80036fc:	10800060 	cmpeqi	r2,r2,1
 8003700:	1000111e 	bne	r2,zero,8003748 <kann_layer_cost+0x80>
 8003704:	e0bfff17 	ldw	r2,-4(fp)
 8003708:	108000a0 	cmpeqi	r2,r2,2
 800370c:	10000e1e 	bne	r2,zero,8003748 <kann_layer_cost+0x80>
 8003710:	e0bfff17 	ldw	r2,-4(fp)
 8003714:	108000e0 	cmpeqi	r2,r2,3
 8003718:	10000b1e 	bne	r2,zero,8003748 <kann_layer_cost+0x80>
 800371c:	e0bfff17 	ldw	r2,-4(fp)
 8003720:	10800120 	cmpeqi	r2,r2,4
 8003724:	1000081e 	bne	r2,zero,8003748 <kann_layer_cost+0x80>
 8003728:	01c200f4 	movhi	r7,2051
 800372c:	39d48e04 	addi	r7,r7,21048
 8003730:	018200f4 	movhi	r6,2051
 8003734:	3194c204 	addi	r6,r6,21256
 8003738:	0140b5c4 	movi	r5,727
 800373c:	010200f4 	movhi	r4,2051
 8003740:	21148104 	addi	r4,r4,20996
 8003744:	801f5240 	call	801f524 <__assert_func>
	t = kann_layer_dense(t, n_out);
 8003748:	e17ffe17 	ldw	r5,-8(fp)
 800374c:	e13ffd17 	ldw	r4,-12(fp)
 8003750:	8002f840 	call	8002f84 <kann_layer_dense>
 8003754:	e0bffd15 	stw	r2,-12(fp)
	truth = kad_feed(2, 1, n_out), truth->ext_flag |= KANN_F_TRUTH;
 8003758:	e1bffe17 	ldw	r6,-8(fp)
 800375c:	01400044 	movi	r5,1
 8003760:	01000084 	movi	r4,2
 8003764:	80057a40 	call	80057a4 <kad_feed>
 8003768:	e0bffc15 	stw	r2,-16(fp)
 800376c:	e0bffc17 	ldw	r2,-16(fp)
 8003770:	10800917 	ldw	r2,36(r2)
 8003774:	10c00114 	ori	r3,r2,4
 8003778:	e0bffc17 	ldw	r2,-16(fp)
 800377c:	10c00915 	stw	r3,36(r2)
	if (cost_type == KANN_C_MSE) {
 8003780:	e0bfff17 	ldw	r2,-4(fp)
 8003784:	10800118 	cmpnei	r2,r2,4
 8003788:	1000051e 	bne	r2,zero,80037a0 <kann_layer_cost+0xd8>
		cost = kad_mse(t, truth);
 800378c:	e17ffc17 	ldw	r5,-16(fp)
 8003790:	e13ffd17 	ldw	r4,-12(fp)
 8003794:	8005cc40 	call	8005cc4 <kad_mse>
 8003798:	e0bffb15 	stw	r2,-20(fp)
 800379c:	00002006 	br	8003820 <kann_layer_cost+0x158>
	} else if (cost_type == KANN_C_CEB) {
 80037a0:	e0bfff17 	ldw	r2,-4(fp)
 80037a4:	10800058 	cmpnei	r2,r2,1
 80037a8:	1000081e 	bne	r2,zero,80037cc <kann_layer_cost+0x104>
		t = kad_sigm(t);
 80037ac:	e13ffd17 	ldw	r4,-12(fp)
 80037b0:	8005e0c0 	call	8005e0c <kad_sigm>
 80037b4:	e0bffd15 	stw	r2,-12(fp)
		cost = kad_ce_bin(t, truth);
 80037b8:	e17ffc17 	ldw	r5,-16(fp)
 80037bc:	e13ffd17 	ldw	r4,-12(fp)
 80037c0:	8005c340 	call	8005c34 <kad_ce_bin>
 80037c4:	e0bffb15 	stw	r2,-20(fp)
 80037c8:	00001506 	br	8003820 <kann_layer_cost+0x158>
	} else if (cost_type == KANN_C_CEB_NEG) {
 80037cc:	e0bfff17 	ldw	r2,-4(fp)
 80037d0:	108000d8 	cmpnei	r2,r2,3
 80037d4:	1000081e 	bne	r2,zero,80037f8 <kann_layer_cost+0x130>
		t = kad_tanh(t);
 80037d8:	e13ffd17 	ldw	r4,-12(fp)
 80037dc:	8005e4c0 	call	8005e4c <kad_tanh>
 80037e0:	e0bffd15 	stw	r2,-12(fp)
		cost = kad_ce_bin_neg(t, truth);
 80037e4:	e17ffc17 	ldw	r5,-16(fp)
 80037e8:	e13ffd17 	ldw	r4,-12(fp)
 80037ec:	8005c7c0 	call	8005c7c <kad_ce_bin_neg>
 80037f0:	e0bffb15 	stw	r2,-20(fp)
 80037f4:	00000a06 	br	8003820 <kann_layer_cost+0x158>
	} else if (cost_type == KANN_C_CEM) {
 80037f8:	e0bfff17 	ldw	r2,-4(fp)
 80037fc:	10800098 	cmpnei	r2,r2,2
 8003800:	1000071e 	bne	r2,zero,8003820 <kann_layer_cost+0x158>
		t = kad_softmax(t);
 8003804:	e13ffd17 	ldw	r4,-12(fp)
 8003808:	8005f0c0 	call	8005f0c <kad_softmax>
 800380c:	e0bffd15 	stw	r2,-12(fp)
		cost = kad_ce_multi(t, truth);
 8003810:	e17ffc17 	ldw	r5,-16(fp)
 8003814:	e13ffd17 	ldw	r4,-12(fp)
 8003818:	8005bec0 	call	8005bec <kad_ce_multi>
 800381c:	e0bffb15 	stw	r2,-20(fp)
	}
	t->ext_flag |= KANN_F_OUT, cost->ext_flag |= KANN_F_COST;
 8003820:	e0bffd17 	ldw	r2,-12(fp)
 8003824:	10800917 	ldw	r2,36(r2)
 8003828:	10c00094 	ori	r3,r2,2
 800382c:	e0bffd17 	ldw	r2,-12(fp)
 8003830:	10c00915 	stw	r3,36(r2)
 8003834:	e0bffb17 	ldw	r2,-20(fp)
 8003838:	10800917 	ldw	r2,36(r2)
 800383c:	10c00214 	ori	r3,r2,8
 8003840:	e0bffb17 	ldw	r2,-20(fp)
 8003844:	10c00915 	stw	r3,36(r2)
	return cost;
 8003848:	e0bffb17 	ldw	r2,-20(fp)
}
 800384c:	e037883a 	mov	sp,fp
 8003850:	dfc00117 	ldw	ra,4(sp)
 8003854:	df000017 	ldw	fp,0(sp)
 8003858:	dec00204 	addi	sp,sp,8
 800385c:	f800283a 	ret

08003860 <kann_shuffle>:

void kann_shuffle(int n, int *s)
{
 8003860:	f811883a 	mov	r8,ra
 8003864:	802e3940 	call	802e394 <_mcount>
 8003868:	403f883a 	mov	ra,r8
 800386c:	defff704 	addi	sp,sp,-36
 8003870:	dfc00815 	stw	ra,32(sp)
 8003874:	df000715 	stw	fp,28(sp)
 8003878:	dc400615 	stw	r17,24(sp)
 800387c:	dc000515 	stw	r16,20(sp)
 8003880:	df000704 	addi	fp,sp,28
 8003884:	e13ffc15 	stw	r4,-16(fp)
 8003888:	e17ffd15 	stw	r5,-12(fp)
	int i, j, t;
	for (i = 0; i < n; ++i) s[i] = i;
 800388c:	e03ff915 	stw	zero,-28(fp)
 8003890:	00000b06 	br	80038c0 <kann_shuffle+0x60>
 8003894:	e0bff917 	ldw	r2,-28(fp)
 8003898:	1085883a 	add	r2,r2,r2
 800389c:	1085883a 	add	r2,r2,r2
 80038a0:	1007883a 	mov	r3,r2
 80038a4:	e0bffd17 	ldw	r2,-12(fp)
 80038a8:	10c5883a 	add	r2,r2,r3
 80038ac:	e0fff917 	ldw	r3,-28(fp)
 80038b0:	10c00015 	stw	r3,0(r2)
 80038b4:	e0bff917 	ldw	r2,-28(fp)
 80038b8:	10800044 	addi	r2,r2,1
 80038bc:	e0bff915 	stw	r2,-28(fp)
 80038c0:	e0fff917 	ldw	r3,-28(fp)
 80038c4:	e0bffc17 	ldw	r2,-16(fp)
 80038c8:	18bff216 	blt	r3,r2,8003894 <kann_shuffle+0x34>
	for (i = n; i > 0; --i) {
 80038cc:	e0bffc17 	ldw	r2,-16(fp)
 80038d0:	e0bff915 	stw	r2,-28(fp)
 80038d4:	00003c06 	br	80039c8 <kann_shuffle+0x168>
		j = (int)(i * kad_drand(0));
 80038d8:	e13ff917 	ldw	r4,-28(fp)
 80038dc:	801f0d80 	call	801f0d8 <__floatsidf>
 80038e0:	1021883a 	mov	r16,r2
 80038e4:	1823883a 	mov	r17,r3
 80038e8:	0009883a 	mov	r4,zero
 80038ec:	800adcc0 	call	800adcc <kad_drand>
 80038f0:	1009883a 	mov	r4,r2
 80038f4:	180b883a 	mov	r5,r3
 80038f8:	200d883a 	mov	r6,r4
 80038fc:	280f883a 	mov	r7,r5
 8003900:	8009883a 	mov	r4,r16
 8003904:	880b883a 	mov	r5,r17
 8003908:	801e0200 	call	801e020 <__muldf3>
 800390c:	1009883a 	mov	r4,r2
 8003910:	180b883a 	mov	r5,r3
 8003914:	2005883a 	mov	r2,r4
 8003918:	2807883a 	mov	r3,r5
 800391c:	1009883a 	mov	r4,r2
 8003920:	180b883a 	mov	r5,r3
 8003924:	801f04c0 	call	801f04c <__fixdfsi>
 8003928:	e0bffa15 	stw	r2,-24(fp)
		t = s[j], s[j] = s[i-1], s[i-1] = t;
 800392c:	e0bffa17 	ldw	r2,-24(fp)
 8003930:	1085883a 	add	r2,r2,r2
 8003934:	1085883a 	add	r2,r2,r2
 8003938:	1007883a 	mov	r3,r2
 800393c:	e0bffd17 	ldw	r2,-12(fp)
 8003940:	10c5883a 	add	r2,r2,r3
 8003944:	10800017 	ldw	r2,0(r2)
 8003948:	e0bffb15 	stw	r2,-20(fp)
 800394c:	e0bffa17 	ldw	r2,-24(fp)
 8003950:	1085883a 	add	r2,r2,r2
 8003954:	1085883a 	add	r2,r2,r2
 8003958:	1007883a 	mov	r3,r2
 800395c:	e0bffd17 	ldw	r2,-12(fp)
 8003960:	10c7883a 	add	r3,r2,r3
 8003964:	e13ff917 	ldw	r4,-28(fp)
 8003968:	00900034 	movhi	r2,16384
 800396c:	10bfffc4 	addi	r2,r2,-1
 8003970:	2085883a 	add	r2,r4,r2
 8003974:	1085883a 	add	r2,r2,r2
 8003978:	1085883a 	add	r2,r2,r2
 800397c:	1009883a 	mov	r4,r2
 8003980:	e0bffd17 	ldw	r2,-12(fp)
 8003984:	1105883a 	add	r2,r2,r4
 8003988:	10800017 	ldw	r2,0(r2)
 800398c:	18800015 	stw	r2,0(r3)
 8003990:	e0fff917 	ldw	r3,-28(fp)
 8003994:	00900034 	movhi	r2,16384
 8003998:	10bfffc4 	addi	r2,r2,-1
 800399c:	1885883a 	add	r2,r3,r2
 80039a0:	1085883a 	add	r2,r2,r2
 80039a4:	1085883a 	add	r2,r2,r2
 80039a8:	1007883a 	mov	r3,r2
 80039ac:	e0bffd17 	ldw	r2,-12(fp)
 80039b0:	10c5883a 	add	r2,r2,r3
 80039b4:	e0fffb17 	ldw	r3,-20(fp)
 80039b8:	10c00015 	stw	r3,0(r2)

void kann_shuffle(int n, int *s)
{
	int i, j, t;
	for (i = 0; i < n; ++i) s[i] = i;
	for (i = n; i > 0; --i) {
 80039bc:	e0bff917 	ldw	r2,-28(fp)
 80039c0:	10bfffc4 	addi	r2,r2,-1
 80039c4:	e0bff915 	stw	r2,-28(fp)
 80039c8:	e0bff917 	ldw	r2,-28(fp)
 80039cc:	00bfc216 	blt	zero,r2,80038d8 <kann_shuffle+0x78>
		j = (int)(i * kad_drand(0));
		t = s[j], s[j] = s[i-1], s[i-1] = t;
	}
}
 80039d0:	0001883a 	nop
 80039d4:	e6fffe04 	addi	sp,fp,-8
 80039d8:	dfc00317 	ldw	ra,12(sp)
 80039dc:	df000217 	ldw	fp,8(sp)
 80039e0:	dc400117 	ldw	r17,4(sp)
 80039e4:	dc000017 	ldw	r16,0(sp)
 80039e8:	dec00404 	addi	sp,sp,16
 80039ec:	f800283a 	ret

080039f0 <kann_RMSprop>:
		t[i] -= (h? h[i] : h0) / sqrtf(1e-6f + r[i]) * g[i];
	}
}
#else
void kann_RMSprop(int n, float h0, const float *h, float decay, const float *g, float *t, float *r)
{
 80039f0:	f811883a 	mov	r8,ra
 80039f4:	802e3940 	call	802e394 <_mcount>
 80039f8:	403f883a 	mov	ra,r8
 80039fc:	defff604 	addi	sp,sp,-40
 8003a00:	dfc00915 	stw	ra,36(sp)
 8003a04:	df000815 	stw	fp,32(sp)
 8003a08:	dc400715 	stw	r17,28(sp)
 8003a0c:	dc000615 	stw	r16,24(sp)
 8003a10:	df000804 	addi	fp,sp,32
 8003a14:	e13ffa15 	stw	r4,-24(fp)
 8003a18:	e17ffb15 	stw	r5,-20(fp)
 8003a1c:	e1bffc15 	stw	r6,-16(fp)
 8003a20:	e1fffd15 	stw	r7,-12(fp)
	int i;
	for (i = 0; i < n; ++i) {
 8003a24:	e03ff815 	stw	zero,-32(fp)
 8003a28:	00007506 	br	8003c00 <kann_RMSprop+0x210>
		float lr = h? h[i] : h0;
 8003a2c:	e0bffc17 	ldw	r2,-16(fp)
 8003a30:	10000826 	beq	r2,zero,8003a54 <kann_RMSprop+0x64>
 8003a34:	e0bff817 	ldw	r2,-32(fp)
 8003a38:	1085883a 	add	r2,r2,r2
 8003a3c:	1085883a 	add	r2,r2,r2
 8003a40:	1007883a 	mov	r3,r2
 8003a44:	e0bffc17 	ldw	r2,-16(fp)
 8003a48:	10c7883a 	add	r3,r2,r3
 8003a4c:	18800017 	ldw	r2,0(r3)
 8003a50:	00000106 	br	8003a58 <kann_RMSprop+0x68>
 8003a54:	e0bffb17 	ldw	r2,-20(fp)
 8003a58:	e0bff915 	stw	r2,-28(fp)
		r[i] = (1.0f - decay) * g[i] * g[i] + decay * r[i];
 8003a5c:	e0bff817 	ldw	r2,-32(fp)
 8003a60:	1085883a 	add	r2,r2,r2
 8003a64:	1085883a 	add	r2,r2,r2
 8003a68:	1007883a 	mov	r3,r2
 8003a6c:	e0800417 	ldw	r2,16(fp)
 8003a70:	10e1883a 	add	r16,r2,r3
 8003a74:	e17ffd17 	ldw	r5,-12(fp)
 8003a78:	010fe034 	movhi	r4,16256
 8003a7c:	801c56c0 	call	801c56c <__subsf3>
 8003a80:	1007883a 	mov	r3,r2
 8003a84:	1809883a 	mov	r4,r3
 8003a88:	e0bff817 	ldw	r2,-32(fp)
 8003a8c:	1085883a 	add	r2,r2,r2
 8003a90:	1085883a 	add	r2,r2,r2
 8003a94:	1007883a 	mov	r3,r2
 8003a98:	e0800217 	ldw	r2,8(fp)
 8003a9c:	10c5883a 	add	r2,r2,r3
 8003aa0:	10c00017 	ldw	r3,0(r2)
 8003aa4:	180b883a 	mov	r5,r3
 8003aa8:	801c1640 	call	801c164 <__mulsf3>
 8003aac:	1007883a 	mov	r3,r2
 8003ab0:	1809883a 	mov	r4,r3
 8003ab4:	e0bff817 	ldw	r2,-32(fp)
 8003ab8:	1085883a 	add	r2,r2,r2
 8003abc:	1085883a 	add	r2,r2,r2
 8003ac0:	1007883a 	mov	r3,r2
 8003ac4:	e0800217 	ldw	r2,8(fp)
 8003ac8:	10c5883a 	add	r2,r2,r3
 8003acc:	10c00017 	ldw	r3,0(r2)
 8003ad0:	180b883a 	mov	r5,r3
 8003ad4:	801c1640 	call	801c164 <__mulsf3>
 8003ad8:	1007883a 	mov	r3,r2
 8003adc:	1823883a 	mov	r17,r3
 8003ae0:	e0bff817 	ldw	r2,-32(fp)
 8003ae4:	1085883a 	add	r2,r2,r2
 8003ae8:	1085883a 	add	r2,r2,r2
 8003aec:	1007883a 	mov	r3,r2
 8003af0:	e0800417 	ldw	r2,16(fp)
 8003af4:	10c5883a 	add	r2,r2,r3
 8003af8:	10c00017 	ldw	r3,0(r2)
 8003afc:	e17ffd17 	ldw	r5,-12(fp)
 8003b00:	1809883a 	mov	r4,r3
 8003b04:	801c1640 	call	801c164 <__mulsf3>
 8003b08:	1007883a 	mov	r3,r2
 8003b0c:	1805883a 	mov	r2,r3
 8003b10:	100b883a 	mov	r5,r2
 8003b14:	8809883a 	mov	r4,r17
 8003b18:	801b6200 	call	801b620 <__addsf3>
 8003b1c:	1007883a 	mov	r3,r2
 8003b20:	1805883a 	mov	r2,r3
 8003b24:	80800015 	stw	r2,0(r16)
		t[i] -= lr / sqrtf(1e-6f + r[i]) * g[i];
 8003b28:	e0bff817 	ldw	r2,-32(fp)
 8003b2c:	1085883a 	add	r2,r2,r2
 8003b30:	1085883a 	add	r2,r2,r2
 8003b34:	1007883a 	mov	r3,r2
 8003b38:	e0800417 	ldw	r2,16(fp)
 8003b3c:	10c5883a 	add	r2,r2,r3
 8003b40:	10c00017 	ldw	r3,0(r2)
 8003b44:	014d61b4 	movhi	r5,13702
 8003b48:	294def44 	addi	r5,r5,14269
 8003b4c:	1809883a 	mov	r4,r3
 8003b50:	801b6200 	call	801b620 <__addsf3>
 8003b54:	1007883a 	mov	r3,r2
 8003b58:	1805883a 	mov	r2,r3
 8003b5c:	1009883a 	mov	r4,r2
 8003b60:	801869c0 	call	801869c <sqrtf>
 8003b64:	1007883a 	mov	r3,r2
 8003b68:	180b883a 	mov	r5,r3
 8003b6c:	e13ff917 	ldw	r4,-28(fp)
 8003b70:	801baf40 	call	801baf4 <__divsf3>
 8003b74:	1007883a 	mov	r3,r2
 8003b78:	1809883a 	mov	r4,r3
 8003b7c:	e0bff817 	ldw	r2,-32(fp)
 8003b80:	1085883a 	add	r2,r2,r2
 8003b84:	1085883a 	add	r2,r2,r2
 8003b88:	1007883a 	mov	r3,r2
 8003b8c:	e0800217 	ldw	r2,8(fp)
 8003b90:	10c5883a 	add	r2,r2,r3
 8003b94:	10c00017 	ldw	r3,0(r2)
 8003b98:	180b883a 	mov	r5,r3
 8003b9c:	801c1640 	call	801c164 <__mulsf3>
 8003ba0:	1007883a 	mov	r3,r2
 8003ba4:	1809883a 	mov	r4,r3
 8003ba8:	e0bff817 	ldw	r2,-32(fp)
 8003bac:	1085883a 	add	r2,r2,r2
 8003bb0:	1085883a 	add	r2,r2,r2
 8003bb4:	1007883a 	mov	r3,r2
 8003bb8:	e0800317 	ldw	r2,12(fp)
 8003bbc:	10e1883a 	add	r16,r2,r3
 8003bc0:	e0bff817 	ldw	r2,-32(fp)
 8003bc4:	1085883a 	add	r2,r2,r2
 8003bc8:	1085883a 	add	r2,r2,r2
 8003bcc:	1007883a 	mov	r3,r2
 8003bd0:	e0800317 	ldw	r2,12(fp)
 8003bd4:	10c5883a 	add	r2,r2,r3
 8003bd8:	10c00017 	ldw	r3,0(r2)
 8003bdc:	200b883a 	mov	r5,r4
 8003be0:	1809883a 	mov	r4,r3
 8003be4:	801c56c0 	call	801c56c <__subsf3>
 8003be8:	1007883a 	mov	r3,r2
 8003bec:	1805883a 	mov	r2,r3
 8003bf0:	80800015 	stw	r2,0(r16)
}
#else
void kann_RMSprop(int n, float h0, const float *h, float decay, const float *g, float *t, float *r)
{
	int i;
	for (i = 0; i < n; ++i) {
 8003bf4:	e0bff817 	ldw	r2,-32(fp)
 8003bf8:	10800044 	addi	r2,r2,1
 8003bfc:	e0bff815 	stw	r2,-32(fp)
 8003c00:	e0fff817 	ldw	r3,-32(fp)
 8003c04:	e0bffa17 	ldw	r2,-24(fp)
 8003c08:	18bf8816 	blt	r3,r2,8003a2c <kann_RMSprop+0x3c>
		float lr = h? h[i] : h0;
		r[i] = (1.0f - decay) * g[i] * g[i] + decay * r[i];
		t[i] -= lr / sqrtf(1e-6f + r[i]) * g[i];
	}
}
 8003c0c:	0001883a 	nop
 8003c10:	e6fffe04 	addi	sp,fp,-8
 8003c14:	dfc00317 	ldw	ra,12(sp)
 8003c18:	df000217 	ldw	fp,8(sp)
 8003c1c:	dc400117 	ldw	r17,4(sp)
 8003c20:	dc000017 	ldw	r16,0(sp)
 8003c24:	dec00404 	addi	sp,sp,16
 8003c28:	f800283a 	ret

08003c2c <kann_grad_clip>:
#endif

float kann_grad_clip(float thres, int n, float *g)
{
 8003c2c:	f811883a 	mov	r8,ra
 8003c30:	802e3940 	call	802e394 <_mcount>
 8003c34:	403f883a 	mov	ra,r8
 8003c38:	defff604 	addi	sp,sp,-40
 8003c3c:	dfc00915 	stw	ra,36(sp)
 8003c40:	df000815 	stw	fp,32(sp)
 8003c44:	dc400715 	stw	r17,28(sp)
 8003c48:	dc000615 	stw	r16,24(sp)
 8003c4c:	df000804 	addi	fp,sp,32
 8003c50:	e13ffb15 	stw	r4,-20(fp)
 8003c54:	e17ffc15 	stw	r5,-16(fp)
 8003c58:	e1bffd15 	stw	r6,-12(fp)
	int i;
	double s2 = 0.0;
 8003c5c:	e03ff915 	stw	zero,-28(fp)
 8003c60:	e03ffa15 	stw	zero,-24(fp)
	for (i = 0; i < n; ++i)
 8003c64:	e03ff815 	stw	zero,-32(fp)
 8003c68:	00002306 	br	8003cf8 <kann_grad_clip+0xcc>
		s2 += g[i] * g[i];
 8003c6c:	e0bff817 	ldw	r2,-32(fp)
 8003c70:	1085883a 	add	r2,r2,r2
 8003c74:	1085883a 	add	r2,r2,r2
 8003c78:	1007883a 	mov	r3,r2
 8003c7c:	e0bffd17 	ldw	r2,-12(fp)
 8003c80:	10c5883a 	add	r2,r2,r3
 8003c84:	10c00017 	ldw	r3,0(r2)
 8003c88:	e0bff817 	ldw	r2,-32(fp)
 8003c8c:	1085883a 	add	r2,r2,r2
 8003c90:	1085883a 	add	r2,r2,r2
 8003c94:	1009883a 	mov	r4,r2
 8003c98:	e0bffd17 	ldw	r2,-12(fp)
 8003c9c:	1105883a 	add	r2,r2,r4
 8003ca0:	11000017 	ldw	r4,0(r2)
 8003ca4:	200b883a 	mov	r5,r4
 8003ca8:	1809883a 	mov	r4,r3
 8003cac:	801c1640 	call	801c164 <__mulsf3>
 8003cb0:	1007883a 	mov	r3,r2
 8003cb4:	1805883a 	mov	r2,r3
 8003cb8:	1009883a 	mov	r4,r2
 8003cbc:	801f1c00 	call	801f1c0 <__extendsfdf2>
 8003cc0:	1009883a 	mov	r4,r2
 8003cc4:	180b883a 	mov	r5,r3
 8003cc8:	200d883a 	mov	r6,r4
 8003ccc:	280f883a 	mov	r7,r5
 8003cd0:	e13ff917 	ldw	r4,-28(fp)
 8003cd4:	e17ffa17 	ldw	r5,-24(fp)
 8003cd8:	801cc080 	call	801cc08 <__adddf3>
 8003cdc:	1009883a 	mov	r4,r2
 8003ce0:	180b883a 	mov	r5,r3
 8003ce4:	e13ff915 	stw	r4,-28(fp)
 8003ce8:	e17ffa15 	stw	r5,-24(fp)

float kann_grad_clip(float thres, int n, float *g)
{
	int i;
	double s2 = 0.0;
	for (i = 0; i < n; ++i)
 8003cec:	e0bff817 	ldw	r2,-32(fp)
 8003cf0:	10800044 	addi	r2,r2,1
 8003cf4:	e0bff815 	stw	r2,-32(fp)
 8003cf8:	e0fff817 	ldw	r3,-32(fp)
 8003cfc:	e0bffc17 	ldw	r2,-16(fp)
 8003d00:	18bfda16 	blt	r3,r2,8003c6c <kann_grad_clip+0x40>
		s2 += g[i] * g[i];
	s2 = sqrt(s2);
 8003d04:	e13ff917 	ldw	r4,-28(fp)
 8003d08:	e17ffa17 	ldw	r5,-24(fp)
 8003d0c:	80182640 	call	8018264 <sqrt>
 8003d10:	e0bff915 	stw	r2,-28(fp)
 8003d14:	e0fffa15 	stw	r3,-24(fp)
	if (s2 > thres)
 8003d18:	e13ffb17 	ldw	r4,-20(fp)
 8003d1c:	801f1c00 	call	801f1c0 <__extendsfdf2>
 8003d20:	1011883a 	mov	r8,r2
 8003d24:	1813883a 	mov	r9,r3
 8003d28:	e1bff917 	ldw	r6,-28(fp)
 8003d2c:	e1fffa17 	ldw	r7,-24(fp)
 8003d30:	4009883a 	mov	r4,r8
 8003d34:	480b883a 	mov	r5,r9
 8003d38:	801df280 	call	801df28 <__ledf2>
 8003d3c:	1000280e 	bge	r2,zero,8003de0 <kann_grad_clip+0x1b4>
		for (i = 0, s2 = 1.0 / s2; i < n; ++i)
 8003d40:	e03ff815 	stw	zero,-32(fp)
 8003d44:	e1bff917 	ldw	r6,-28(fp)
 8003d48:	e1fffa17 	ldw	r7,-24(fp)
 8003d4c:	0009883a 	mov	r4,zero
 8003d50:	014ffc34 	movhi	r5,16368
 8003d54:	801d4c00 	call	801d4c0 <__divdf3>
 8003d58:	1009883a 	mov	r4,r2
 8003d5c:	180b883a 	mov	r5,r3
 8003d60:	e13ff915 	stw	r4,-28(fp)
 8003d64:	e17ffa15 	stw	r5,-24(fp)
 8003d68:	00001a06 	br	8003dd4 <kann_grad_clip+0x1a8>
			g[i] *= (float)s2;
 8003d6c:	e0bff817 	ldw	r2,-32(fp)
 8003d70:	1085883a 	add	r2,r2,r2
 8003d74:	1085883a 	add	r2,r2,r2
 8003d78:	1007883a 	mov	r3,r2
 8003d7c:	e0bffd17 	ldw	r2,-12(fp)
 8003d80:	10e1883a 	add	r16,r2,r3
 8003d84:	e0bff817 	ldw	r2,-32(fp)
 8003d88:	1085883a 	add	r2,r2,r2
 8003d8c:	1085883a 	add	r2,r2,r2
 8003d90:	1007883a 	mov	r3,r2
 8003d94:	e0bffd17 	ldw	r2,-12(fp)
 8003d98:	10c5883a 	add	r2,r2,r3
 8003d9c:	14400017 	ldw	r17,0(r2)
 8003da0:	e13ff917 	ldw	r4,-28(fp)
 8003da4:	e17ffa17 	ldw	r5,-24(fp)
 8003da8:	801f2dc0 	call	801f2dc <__truncdfsf2>
 8003dac:	1007883a 	mov	r3,r2
 8003db0:	180b883a 	mov	r5,r3
 8003db4:	8809883a 	mov	r4,r17
 8003db8:	801c1640 	call	801c164 <__mulsf3>
 8003dbc:	1007883a 	mov	r3,r2
 8003dc0:	1805883a 	mov	r2,r3
 8003dc4:	80800015 	stw	r2,0(r16)
	double s2 = 0.0;
	for (i = 0; i < n; ++i)
		s2 += g[i] * g[i];
	s2 = sqrt(s2);
	if (s2 > thres)
		for (i = 0, s2 = 1.0 / s2; i < n; ++i)
 8003dc8:	e0bff817 	ldw	r2,-32(fp)
 8003dcc:	10800044 	addi	r2,r2,1
 8003dd0:	e0bff815 	stw	r2,-32(fp)
 8003dd4:	e0fff817 	ldw	r3,-32(fp)
 8003dd8:	e0bffc17 	ldw	r2,-16(fp)
 8003ddc:	18bfe316 	blt	r3,r2,8003d6c <kann_grad_clip+0x140>
			g[i] *= (float)s2;
	return (float)s2 / thres;
 8003de0:	e13ff917 	ldw	r4,-28(fp)
 8003de4:	e17ffa17 	ldw	r5,-24(fp)
 8003de8:	801f2dc0 	call	801f2dc <__truncdfsf2>
 8003dec:	1007883a 	mov	r3,r2
 8003df0:	e17ffb17 	ldw	r5,-20(fp)
 8003df4:	1809883a 	mov	r4,r3
 8003df8:	801baf40 	call	801baf4 <__divsf3>
 8003dfc:	1009883a 	mov	r4,r2
 8003e00:	2007883a 	mov	r3,r4
 8003e04:	1805883a 	mov	r2,r3
}
 8003e08:	e6fffe04 	addi	sp,fp,-8
 8003e0c:	dfc00317 	ldw	ra,12(sp)
 8003e10:	df000217 	ldw	fp,8(sp)
 8003e14:	dc400117 	ldw	r17,4(sp)
 8003e18:	dc000017 	ldw	r16,0(sp)
 8003e1c:	dec00404 	addi	sp,sp,16
 8003e20:	f800283a 	ret

08003e24 <kann_train_fnn1>:
/****************************************************************
 *** @@XY: simpler API for network with a single input/output ***
 ****************************************************************/

int kann_train_fnn1(kann_t *ann, float lr, int mini_size, int max_epoch, int max_drop_streak, float frac_val, int n, float **_x, float **_y)
{
 8003e24:	f811883a 	mov	r8,ra
 8003e28:	802e3940 	call	802e394 <_mcount>
 8003e2c:	403f883a 	mov	ra,r8
 8003e30:	deffd304 	addi	sp,sp,-180
 8003e34:	dfc02c15 	stw	ra,176(sp)
 8003e38:	df002b15 	stw	fp,172(sp)
 8003e3c:	dc402a15 	stw	r17,168(sp)
 8003e40:	dc002915 	stw	r16,164(sp)
 8003e44:	df002b04 	addi	fp,sp,172
 8003e48:	e13ffa15 	stw	r4,-24(fp)
 8003e4c:	e17ffb15 	stw	r5,-20(fp)
 8003e50:	e1bffc15 	stw	r6,-16(fp)
 8003e54:	e1fffd15 	stw	r7,-12(fp)
	int i, j, *shuf, n_train, n_val, n_in, n_out, n_var, n_const, drop_streak = 0, min_set = 0;
 8003e58:	e03fda15 	stw	zero,-152(fp)
 8003e5c:	e03fdb15 	stw	zero,-148(fp)
	float **x, **y, *x1, *y1, *r, min_val_cost = FLT_MAX, *min_x, *min_c;
 8003e60:	009fe034 	movhi	r2,32640
 8003e64:	10bfffc4 	addi	r2,r2,-1
 8003e68:	e0bfdc15 	stw	r2,-144(fp)

	n_in = kann_dim_in(ann);
 8003e6c:	000d883a 	mov	r6,zero
 8003e70:	01400044 	movi	r5,1
 8003e74:	e13ffa17 	ldw	r4,-24(fp)
 8003e78:	80010f40 	call	80010f4 <kann_feed_dim>
 8003e7c:	e0bfe615 	stw	r2,-104(fp)
	n_out = kann_dim_out(ann);
 8003e80:	000d883a 	mov	r6,zero
 8003e84:	01400104 	movi	r5,4
 8003e88:	e13ffa17 	ldw	r4,-24(fp)
 8003e8c:	80010f40 	call	80010f4 <kann_feed_dim>
 8003e90:	e0bfe715 	stw	r2,-100(fp)
	if (n_in < 0 || n_out < 0) return -1;
 8003e94:	e0bfe617 	ldw	r2,-104(fp)
 8003e98:	10000216 	blt	r2,zero,8003ea4 <kann_train_fnn1+0x80>
 8003e9c:	e0bfe717 	ldw	r2,-100(fp)
 8003ea0:	1000020e 	bge	r2,zero,8003eac <kann_train_fnn1+0x88>
 8003ea4:	00bfffc4 	movi	r2,-1
 8003ea8:	00027d06 	br	80048a0 <kann_train_fnn1+0xa7c>
	n_var = kann_size_var(ann);
 8003eac:	e0bffa17 	ldw	r2,-24(fp)
 8003eb0:	10c00017 	ldw	r3,0(r2)
 8003eb4:	e0bffa17 	ldw	r2,-24(fp)
 8003eb8:	10800117 	ldw	r2,4(r2)
 8003ebc:	100b883a 	mov	r5,r2
 8003ec0:	1809883a 	mov	r4,r3
 8003ec4:	8007d800 	call	8007d80 <kad_size_var>
 8003ec8:	e0bfe815 	stw	r2,-96(fp)
	n_const = kann_size_const(ann);
 8003ecc:	e0bffa17 	ldw	r2,-24(fp)
 8003ed0:	10c00017 	ldw	r3,0(r2)
 8003ed4:	e0bffa17 	ldw	r2,-24(fp)
 8003ed8:	10800117 	ldw	r2,4(r2)
 8003edc:	100b883a 	mov	r5,r2
 8003ee0:	1809883a 	mov	r4,r3
 8003ee4:	8007e680 	call	8007e68 <kad_size_const>
 8003ee8:	e0bfe915 	stw	r2,-92(fp)
	r = (float*)calloc(n_var, sizeof(float));
 8003eec:	e0bfe817 	ldw	r2,-96(fp)
 8003ef0:	01400104 	movi	r5,4
 8003ef4:	1009883a 	mov	r4,r2
 8003ef8:	801f5b80 	call	801f5b8 <calloc>
 8003efc:	e0bfea15 	stw	r2,-88(fp)
	shuf = (int*)malloc(n * sizeof(int));
 8003f00:	e0800417 	ldw	r2,16(fp)
 8003f04:	1085883a 	add	r2,r2,r2
 8003f08:	1085883a 	add	r2,r2,r2
 8003f0c:	1009883a 	mov	r4,r2
 8003f10:	80219cc0 	call	80219cc <malloc>
 8003f14:	e0bfeb15 	stw	r2,-84(fp)
	x = (float**)malloc(n * sizeof(float*));
 8003f18:	e0800417 	ldw	r2,16(fp)
 8003f1c:	1085883a 	add	r2,r2,r2
 8003f20:	1085883a 	add	r2,r2,r2
 8003f24:	1009883a 	mov	r4,r2
 8003f28:	80219cc0 	call	80219cc <malloc>
 8003f2c:	e0bfec15 	stw	r2,-80(fp)
	y = (float**)malloc(n * sizeof(float*));
 8003f30:	e0800417 	ldw	r2,16(fp)
 8003f34:	1085883a 	add	r2,r2,r2
 8003f38:	1085883a 	add	r2,r2,r2
 8003f3c:	1009883a 	mov	r4,r2
 8003f40:	80219cc0 	call	80219cc <malloc>
 8003f44:	e0bfed15 	stw	r2,-76(fp)
	kann_shuffle(n, shuf);
 8003f48:	e17feb17 	ldw	r5,-84(fp)
 8003f4c:	e1000417 	ldw	r4,16(fp)
 8003f50:	80038600 	call	8003860 <kann_shuffle>
	for (j = 0; j < n; ++j)
 8003f54:	e03fd915 	stw	zero,-156(fp)
 8003f58:	00002b06 	br	8004008 <kann_train_fnn1+0x1e4>
		x[j] = _x[shuf[j]], y[j] = _y[shuf[j]];
 8003f5c:	e0bfd917 	ldw	r2,-156(fp)
 8003f60:	1085883a 	add	r2,r2,r2
 8003f64:	1085883a 	add	r2,r2,r2
 8003f68:	1007883a 	mov	r3,r2
 8003f6c:	e0bfec17 	ldw	r2,-80(fp)
 8003f70:	10c7883a 	add	r3,r2,r3
 8003f74:	e0bfd917 	ldw	r2,-156(fp)
 8003f78:	1085883a 	add	r2,r2,r2
 8003f7c:	1085883a 	add	r2,r2,r2
 8003f80:	1009883a 	mov	r4,r2
 8003f84:	e0bfeb17 	ldw	r2,-84(fp)
 8003f88:	1105883a 	add	r2,r2,r4
 8003f8c:	10800017 	ldw	r2,0(r2)
 8003f90:	1085883a 	add	r2,r2,r2
 8003f94:	1085883a 	add	r2,r2,r2
 8003f98:	1009883a 	mov	r4,r2
 8003f9c:	e0800517 	ldw	r2,20(fp)
 8003fa0:	1105883a 	add	r2,r2,r4
 8003fa4:	10800017 	ldw	r2,0(r2)
 8003fa8:	18800015 	stw	r2,0(r3)
 8003fac:	e0bfd917 	ldw	r2,-156(fp)
 8003fb0:	1085883a 	add	r2,r2,r2
 8003fb4:	1085883a 	add	r2,r2,r2
 8003fb8:	1007883a 	mov	r3,r2
 8003fbc:	e0bfed17 	ldw	r2,-76(fp)
 8003fc0:	10c7883a 	add	r3,r2,r3
 8003fc4:	e0bfd917 	ldw	r2,-156(fp)
 8003fc8:	1085883a 	add	r2,r2,r2
 8003fcc:	1085883a 	add	r2,r2,r2
 8003fd0:	1009883a 	mov	r4,r2
 8003fd4:	e0bfeb17 	ldw	r2,-84(fp)
 8003fd8:	1105883a 	add	r2,r2,r4
 8003fdc:	10800017 	ldw	r2,0(r2)
 8003fe0:	1085883a 	add	r2,r2,r2
 8003fe4:	1085883a 	add	r2,r2,r2
 8003fe8:	1009883a 	mov	r4,r2
 8003fec:	e0800617 	ldw	r2,24(fp)
 8003ff0:	1105883a 	add	r2,r2,r4
 8003ff4:	10800017 	ldw	r2,0(r2)
 8003ff8:	18800015 	stw	r2,0(r3)
	r = (float*)calloc(n_var, sizeof(float));
	shuf = (int*)malloc(n * sizeof(int));
	x = (float**)malloc(n * sizeof(float*));
	y = (float**)malloc(n * sizeof(float*));
	kann_shuffle(n, shuf);
	for (j = 0; j < n; ++j)
 8003ffc:	e0bfd917 	ldw	r2,-156(fp)
 8004000:	10800044 	addi	r2,r2,1
 8004004:	e0bfd915 	stw	r2,-156(fp)
 8004008:	e0ffd917 	ldw	r3,-156(fp)
 800400c:	e0800417 	ldw	r2,16(fp)
 8004010:	18bfd216 	blt	r3,r2,8003f5c <kann_train_fnn1+0x138>
		x[j] = _x[shuf[j]], y[j] = _y[shuf[j]];
	n_val = (int)(n * frac_val);
 8004014:	e1000417 	ldw	r4,16(fp)
 8004018:	801cad80 	call	801cad8 <__floatsisf>
 800401c:	1007883a 	mov	r3,r2
 8004020:	e1400317 	ldw	r5,12(fp)
 8004024:	1809883a 	mov	r4,r3
 8004028:	801c1640 	call	801c164 <__mulsf3>
 800402c:	1007883a 	mov	r3,r2
 8004030:	1805883a 	mov	r2,r3
 8004034:	1009883a 	mov	r4,r2
 8004038:	801ca5c0 	call	801ca5c <__fixsfsi>
 800403c:	e0bfee15 	stw	r2,-72(fp)
	n_train = n - n_val;
 8004040:	e0c00417 	ldw	r3,16(fp)
 8004044:	e0bfee17 	ldw	r2,-72(fp)
 8004048:	1885c83a 	sub	r2,r3,r2
 800404c:	e0bfef15 	stw	r2,-68(fp)
	min_x = (float*)malloc(n_var * sizeof(float));
 8004050:	e0bfe817 	ldw	r2,-96(fp)
 8004054:	1085883a 	add	r2,r2,r2
 8004058:	1085883a 	add	r2,r2,r2
 800405c:	1009883a 	mov	r4,r2
 8004060:	80219cc0 	call	80219cc <malloc>
 8004064:	e0bff015 	stw	r2,-64(fp)
	min_c = (float*)malloc(n_const * sizeof(float));
 8004068:	e0bfe917 	ldw	r2,-92(fp)
 800406c:	1085883a 	add	r2,r2,r2
 8004070:	1085883a 	add	r2,r2,r2
 8004074:	1009883a 	mov	r4,r2
 8004078:	80219cc0 	call	80219cc <malloc>
 800407c:	e0bff115 	stw	r2,-60(fp)

	x1 = (float*)malloc(n_in  * mini_size * sizeof(float));
 8004080:	e0ffe617 	ldw	r3,-104(fp)
 8004084:	e0bffc17 	ldw	r2,-16(fp)
 8004088:	1885383a 	mul	r2,r3,r2
 800408c:	1085883a 	add	r2,r2,r2
 8004090:	1085883a 	add	r2,r2,r2
 8004094:	1009883a 	mov	r4,r2
 8004098:	80219cc0 	call	80219cc <malloc>
 800409c:	e0bff615 	stw	r2,-40(fp)
	y1 = (float*)malloc(n_out * mini_size * sizeof(float));
 80040a0:	e0ffe717 	ldw	r3,-100(fp)
 80040a4:	e0bffc17 	ldw	r2,-16(fp)
 80040a8:	1885383a 	mul	r2,r3,r2
 80040ac:	1085883a 	add	r2,r2,r2
 80040b0:	1085883a 	add	r2,r2,r2
 80040b4:	1009883a 	mov	r4,r2
 80040b8:	80219cc0 	call	80219cc <malloc>
 80040bc:	e0bff715 	stw	r2,-36(fp)
	kann_feed_bind(ann, KANN_F_IN,    0, &x1);
 80040c0:	e0bff604 	addi	r2,fp,-40
 80040c4:	100f883a 	mov	r7,r2
 80040c8:	000d883a 	mov	r6,zero
 80040cc:	01400044 	movi	r5,1
 80040d0:	e13ffa17 	ldw	r4,-24(fp)
 80040d4:	8000f580 	call	8000f58 <kann_feed_bind>
	kann_feed_bind(ann, KANN_F_TRUTH, 0, &y1);
 80040d8:	e0bff704 	addi	r2,fp,-36
 80040dc:	100f883a 	mov	r7,r2
 80040e0:	000d883a 	mov	r6,zero
 80040e4:	01400104 	movi	r5,4
 80040e8:	e13ffa17 	ldw	r4,-24(fp)
 80040ec:	8000f580 	call	8000f58 <kann_feed_bind>

	for (i = 0; i < max_epoch; ++i) {
 80040f0:	e03fd815 	stw	zero,-160(fp)
 80040f4:	0001be06 	br	80047f0 <kann_train_fnn1+0x9cc>
		int n_proc = 0, n_train_err = 0, n_val_err = 0, n_train_base = 0, n_val_base = 0;
 80040f8:	e03fdd15 	stw	zero,-140(fp)
 80040fc:	e03fde15 	stw	zero,-136(fp)
 8004100:	e03fdf15 	stw	zero,-132(fp)
 8004104:	e03fe015 	stw	zero,-128(fp)
 8004108:	e03fe115 	stw	zero,-124(fp)
		double train_cost = 0.0, val_cost = 0.0;
 800410c:	e03fe215 	stw	zero,-120(fp)
 8004110:	e03fe315 	stw	zero,-116(fp)
 8004114:	e03fe415 	stw	zero,-112(fp)
 8004118:	e03fe515 	stw	zero,-108(fp)
		kann_shuffle(n_train, shuf);
 800411c:	e17feb17 	ldw	r5,-84(fp)
 8004120:	e13fef17 	ldw	r4,-68(fp)
 8004124:	80038600 	call	8003860 <kann_shuffle>
		kann_switch(ann, 1);
 8004128:	01400044 	movi	r5,1
 800412c:	e13ffa17 	ldw	r4,-24(fp)
 8004130:	8001bd00 	call	8001bd0 <kann_switch>
		while (n_proc < n_train) {
 8004134:	00008806 	br	8004358 <kann_train_fnn1+0x534>
			int b, c, ms = n_train - n_proc < mini_size? n_train - n_proc : mini_size;
 8004138:	e0ffef17 	ldw	r3,-68(fp)
 800413c:	e0bfdd17 	ldw	r2,-140(fp)
 8004140:	1885c83a 	sub	r2,r3,r2
 8004144:	e0fffc17 	ldw	r3,-16(fp)
 8004148:	1880010e 	bge	r3,r2,8004150 <kann_train_fnn1+0x32c>
 800414c:	1805883a 	mov	r2,r3
 8004150:	e0bff215 	stw	r2,-56(fp)
			for (b = 0; b < ms; ++b) {
 8004154:	e03ff815 	stw	zero,-32(fp)
 8004158:	00003b06 	br	8004248 <kann_train_fnn1+0x424>
				memcpy(&x1[b*n_in],  x[shuf[n_proc+b]], n_in  * sizeof(float));
 800415c:	e0fff617 	ldw	r3,-40(fp)
 8004160:	e13ff817 	ldw	r4,-32(fp)
 8004164:	e0bfe617 	ldw	r2,-104(fp)
 8004168:	2085383a 	mul	r2,r4,r2
 800416c:	1085883a 	add	r2,r2,r2
 8004170:	1085883a 	add	r2,r2,r2
 8004174:	1889883a 	add	r4,r3,r2
 8004178:	e0fff817 	ldw	r3,-32(fp)
 800417c:	e0bfdd17 	ldw	r2,-140(fp)
 8004180:	1885883a 	add	r2,r3,r2
 8004184:	1085883a 	add	r2,r2,r2
 8004188:	1085883a 	add	r2,r2,r2
 800418c:	1007883a 	mov	r3,r2
 8004190:	e0bfeb17 	ldw	r2,-84(fp)
 8004194:	10c5883a 	add	r2,r2,r3
 8004198:	10800017 	ldw	r2,0(r2)
 800419c:	1085883a 	add	r2,r2,r2
 80041a0:	1085883a 	add	r2,r2,r2
 80041a4:	1007883a 	mov	r3,r2
 80041a8:	e0bfec17 	ldw	r2,-80(fp)
 80041ac:	10c5883a 	add	r2,r2,r3
 80041b0:	10c00017 	ldw	r3,0(r2)
 80041b4:	e0bfe617 	ldw	r2,-104(fp)
 80041b8:	1085883a 	add	r2,r2,r2
 80041bc:	1085883a 	add	r2,r2,r2
 80041c0:	100d883a 	mov	r6,r2
 80041c4:	180b883a 	mov	r5,r3
 80041c8:	80223140 	call	8022314 <memcpy>
				memcpy(&y1[b*n_out], y[shuf[n_proc+b]], n_out * sizeof(float));
 80041cc:	e0fff717 	ldw	r3,-36(fp)
 80041d0:	e13ff817 	ldw	r4,-32(fp)
 80041d4:	e0bfe717 	ldw	r2,-100(fp)
 80041d8:	2085383a 	mul	r2,r4,r2
 80041dc:	1085883a 	add	r2,r2,r2
 80041e0:	1085883a 	add	r2,r2,r2
 80041e4:	1889883a 	add	r4,r3,r2
 80041e8:	e0fff817 	ldw	r3,-32(fp)
 80041ec:	e0bfdd17 	ldw	r2,-140(fp)
 80041f0:	1885883a 	add	r2,r3,r2
 80041f4:	1085883a 	add	r2,r2,r2
 80041f8:	1085883a 	add	r2,r2,r2
 80041fc:	1007883a 	mov	r3,r2
 8004200:	e0bfeb17 	ldw	r2,-84(fp)
 8004204:	10c5883a 	add	r2,r2,r3
 8004208:	10800017 	ldw	r2,0(r2)
 800420c:	1085883a 	add	r2,r2,r2
 8004210:	1085883a 	add	r2,r2,r2
 8004214:	1007883a 	mov	r3,r2
 8004218:	e0bfed17 	ldw	r2,-76(fp)
 800421c:	10c5883a 	add	r2,r2,r3
 8004220:	10c00017 	ldw	r3,0(r2)
 8004224:	e0bfe717 	ldw	r2,-100(fp)
 8004228:	1085883a 	add	r2,r2,r2
 800422c:	1085883a 	add	r2,r2,r2
 8004230:	100d883a 	mov	r6,r2
 8004234:	180b883a 	mov	r5,r3
 8004238:	80223140 	call	8022314 <memcpy>
		double train_cost = 0.0, val_cost = 0.0;
		kann_shuffle(n_train, shuf);
		kann_switch(ann, 1);
		while (n_proc < n_train) {
			int b, c, ms = n_train - n_proc < mini_size? n_train - n_proc : mini_size;
			for (b = 0; b < ms; ++b) {
 800423c:	e0bff817 	ldw	r2,-32(fp)
 8004240:	10800044 	addi	r2,r2,1
 8004244:	e0bff815 	stw	r2,-32(fp)
 8004248:	e0fff817 	ldw	r3,-32(fp)
 800424c:	e0bff217 	ldw	r2,-56(fp)
 8004250:	18bfc216 	blt	r3,r2,800415c <kann_train_fnn1+0x338>
				memcpy(&x1[b*n_in],  x[shuf[n_proc+b]], n_in  * sizeof(float));
				memcpy(&y1[b*n_out], y[shuf[n_proc+b]], n_out * sizeof(float));
			}
			kann_set_batch_size(ann, ms);
 8004254:	e0bffa17 	ldw	r2,-24(fp)
 8004258:	10c00017 	ldw	r3,0(r2)
 800425c:	e0bffa17 	ldw	r2,-24(fp)
 8004260:	10800117 	ldw	r2,4(r2)
 8004264:	e1bff217 	ldw	r6,-56(fp)
 8004268:	100b883a 	mov	r5,r2
 800426c:	1809883a 	mov	r4,r3
 8004270:	80073100 	call	8007310 <kad_sync_dim>
			train_cost += kann_cost(ann, 0, 1) * ms;
 8004274:	01800044 	movi	r6,1
 8004278:	000b883a 	mov	r5,zero
 800427c:	e13ffa17 	ldw	r4,-24(fp)
 8004280:	8001b380 	call	8001b38 <kann_cost>
 8004284:	1021883a 	mov	r16,r2
 8004288:	e13ff217 	ldw	r4,-56(fp)
 800428c:	801cad80 	call	801cad8 <__floatsisf>
 8004290:	1007883a 	mov	r3,r2
 8004294:	180b883a 	mov	r5,r3
 8004298:	8009883a 	mov	r4,r16
 800429c:	801c1640 	call	801c164 <__mulsf3>
 80042a0:	1007883a 	mov	r3,r2
 80042a4:	1805883a 	mov	r2,r3
 80042a8:	1009883a 	mov	r4,r2
 80042ac:	801f1c00 	call	801f1c0 <__extendsfdf2>
 80042b0:	1009883a 	mov	r4,r2
 80042b4:	180b883a 	mov	r5,r3
 80042b8:	200d883a 	mov	r6,r4
 80042bc:	280f883a 	mov	r7,r5
 80042c0:	e13fe217 	ldw	r4,-120(fp)
 80042c4:	e17fe317 	ldw	r5,-116(fp)
 80042c8:	801cc080 	call	801cc08 <__adddf3>
 80042cc:	1009883a 	mov	r4,r2
 80042d0:	180b883a 	mov	r5,r3
 80042d4:	e13fe215 	stw	r4,-120(fp)
 80042d8:	e17fe315 	stw	r5,-116(fp)
			c = kann_class_error(ann, &b);
 80042dc:	e0bff804 	addi	r2,fp,-32
 80042e0:	100b883a 	mov	r5,r2
 80042e4:	e13ffa17 	ldw	r4,-24(fp)
 80042e8:	8001b8c0 	call	8001b8c <kann_class_error>
 80042ec:	e0bff315 	stw	r2,-52(fp)
			n_train_err += c, n_train_base += b;
 80042f0:	e0ffde17 	ldw	r3,-136(fp)
 80042f4:	e0bff317 	ldw	r2,-52(fp)
 80042f8:	1885883a 	add	r2,r3,r2
 80042fc:	e0bfde15 	stw	r2,-136(fp)
 8004300:	e0bff817 	ldw	r2,-32(fp)
 8004304:	e0ffe017 	ldw	r3,-128(fp)
 8004308:	1885883a 	add	r2,r3,r2
 800430c:	e0bfe015 	stw	r2,-128(fp)
			kann_RMSprop(n_var, lr, 0, 0.9f, ann->g, ann->x, r);
 8004310:	e0bffa17 	ldw	r2,-24(fp)
 8004314:	10800317 	ldw	r2,12(r2)
 8004318:	e0fffa17 	ldw	r3,-24(fp)
 800431c:	18c00217 	ldw	r3,8(r3)
 8004320:	e13fea17 	ldw	r4,-88(fp)
 8004324:	d9000215 	stw	r4,8(sp)
 8004328:	d8c00115 	stw	r3,4(sp)
 800432c:	d8800015 	stw	r2,0(sp)
 8004330:	01cfd9b4 	movhi	r7,16230
 8004334:	39d99984 	addi	r7,r7,26214
 8004338:	000d883a 	mov	r6,zero
 800433c:	e17ffb17 	ldw	r5,-20(fp)
 8004340:	e13fe817 	ldw	r4,-96(fp)
 8004344:	80039f00 	call	80039f0 <kann_RMSprop>
			n_proc += ms;
 8004348:	e0ffdd17 	ldw	r3,-140(fp)
 800434c:	e0bff217 	ldw	r2,-56(fp)
 8004350:	1885883a 	add	r2,r3,r2
 8004354:	e0bfdd15 	stw	r2,-140(fp)
	for (i = 0; i < max_epoch; ++i) {
		int n_proc = 0, n_train_err = 0, n_val_err = 0, n_train_base = 0, n_val_base = 0;
		double train_cost = 0.0, val_cost = 0.0;
		kann_shuffle(n_train, shuf);
		kann_switch(ann, 1);
		while (n_proc < n_train) {
 8004358:	e0ffdd17 	ldw	r3,-140(fp)
 800435c:	e0bfef17 	ldw	r2,-68(fp)
 8004360:	18bf7516 	blt	r3,r2,8004138 <kann_train_fnn1+0x314>
			c = kann_class_error(ann, &b);
			n_train_err += c, n_train_base += b;
			kann_RMSprop(n_var, lr, 0, 0.9f, ann->g, ann->x, r);
			n_proc += ms;
		}
		train_cost /= n_train;
 8004364:	e13fef17 	ldw	r4,-68(fp)
 8004368:	801f0d80 	call	801f0d8 <__floatsidf>
 800436c:	1009883a 	mov	r4,r2
 8004370:	180b883a 	mov	r5,r3
 8004374:	200d883a 	mov	r6,r4
 8004378:	280f883a 	mov	r7,r5
 800437c:	e13fe217 	ldw	r4,-120(fp)
 8004380:	e17fe317 	ldw	r5,-116(fp)
 8004384:	801d4c00 	call	801d4c0 <__divdf3>
 8004388:	1009883a 	mov	r4,r2
 800438c:	180b883a 	mov	r5,r3
 8004390:	e13fe215 	stw	r4,-120(fp)
 8004394:	e17fe315 	stw	r5,-116(fp)
		kann_switch(ann, 0);
 8004398:	000b883a 	mov	r5,zero
 800439c:	e13ffa17 	ldw	r4,-24(fp)
 80043a0:	8001bd00 	call	8001bd0 <kann_switch>
		n_proc = 0;
 80043a4:	e03fdd15 	stw	zero,-140(fp)
		while (n_proc < n_val) {
 80043a8:	00007206 	br	8004574 <kann_train_fnn1+0x750>
			int b, c, ms = n_val - n_proc < mini_size? n_val - n_proc : mini_size;
 80043ac:	e0ffee17 	ldw	r3,-72(fp)
 80043b0:	e0bfdd17 	ldw	r2,-140(fp)
 80043b4:	1885c83a 	sub	r2,r3,r2
 80043b8:	e0fffc17 	ldw	r3,-16(fp)
 80043bc:	1880010e 	bge	r3,r2,80043c4 <kann_train_fnn1+0x5a0>
 80043c0:	1805883a 	mov	r2,r3
 80043c4:	e0bff415 	stw	r2,-48(fp)
			for (b = 0; b < ms; ++b) {
 80043c8:	e03ff915 	stw	zero,-28(fp)
 80043cc:	00003306 	br	800449c <kann_train_fnn1+0x678>
				memcpy(&x1[b*n_in],  x[n_train+n_proc+b], n_in  * sizeof(float));
 80043d0:	e0fff617 	ldw	r3,-40(fp)
 80043d4:	e13ff917 	ldw	r4,-28(fp)
 80043d8:	e0bfe617 	ldw	r2,-104(fp)
 80043dc:	2085383a 	mul	r2,r4,r2
 80043e0:	1085883a 	add	r2,r2,r2
 80043e4:	1085883a 	add	r2,r2,r2
 80043e8:	1889883a 	add	r4,r3,r2
 80043ec:	e0ffef17 	ldw	r3,-68(fp)
 80043f0:	e0bfdd17 	ldw	r2,-140(fp)
 80043f4:	1887883a 	add	r3,r3,r2
 80043f8:	e0bff917 	ldw	r2,-28(fp)
 80043fc:	1885883a 	add	r2,r3,r2
 8004400:	1085883a 	add	r2,r2,r2
 8004404:	1085883a 	add	r2,r2,r2
 8004408:	1007883a 	mov	r3,r2
 800440c:	e0bfec17 	ldw	r2,-80(fp)
 8004410:	10c5883a 	add	r2,r2,r3
 8004414:	10c00017 	ldw	r3,0(r2)
 8004418:	e0bfe617 	ldw	r2,-104(fp)
 800441c:	1085883a 	add	r2,r2,r2
 8004420:	1085883a 	add	r2,r2,r2
 8004424:	100d883a 	mov	r6,r2
 8004428:	180b883a 	mov	r5,r3
 800442c:	80223140 	call	8022314 <memcpy>
				memcpy(&y1[b*n_out], y[n_train+n_proc+b], n_out * sizeof(float));
 8004430:	e0fff717 	ldw	r3,-36(fp)
 8004434:	e13ff917 	ldw	r4,-28(fp)
 8004438:	e0bfe717 	ldw	r2,-100(fp)
 800443c:	2085383a 	mul	r2,r4,r2
 8004440:	1085883a 	add	r2,r2,r2
 8004444:	1085883a 	add	r2,r2,r2
 8004448:	1889883a 	add	r4,r3,r2
 800444c:	e0ffef17 	ldw	r3,-68(fp)
 8004450:	e0bfdd17 	ldw	r2,-140(fp)
 8004454:	1887883a 	add	r3,r3,r2
 8004458:	e0bff917 	ldw	r2,-28(fp)
 800445c:	1885883a 	add	r2,r3,r2
 8004460:	1085883a 	add	r2,r2,r2
 8004464:	1085883a 	add	r2,r2,r2
 8004468:	1007883a 	mov	r3,r2
 800446c:	e0bfed17 	ldw	r2,-76(fp)
 8004470:	10c5883a 	add	r2,r2,r3
 8004474:	10c00017 	ldw	r3,0(r2)
 8004478:	e0bfe717 	ldw	r2,-100(fp)
 800447c:	1085883a 	add	r2,r2,r2
 8004480:	1085883a 	add	r2,r2,r2
 8004484:	100d883a 	mov	r6,r2
 8004488:	180b883a 	mov	r5,r3
 800448c:	80223140 	call	8022314 <memcpy>
		train_cost /= n_train;
		kann_switch(ann, 0);
		n_proc = 0;
		while (n_proc < n_val) {
			int b, c, ms = n_val - n_proc < mini_size? n_val - n_proc : mini_size;
			for (b = 0; b < ms; ++b) {
 8004490:	e0bff917 	ldw	r2,-28(fp)
 8004494:	10800044 	addi	r2,r2,1
 8004498:	e0bff915 	stw	r2,-28(fp)
 800449c:	e0fff917 	ldw	r3,-28(fp)
 80044a0:	e0bff417 	ldw	r2,-48(fp)
 80044a4:	18bfca16 	blt	r3,r2,80043d0 <kann_train_fnn1+0x5ac>
				memcpy(&x1[b*n_in],  x[n_train+n_proc+b], n_in  * sizeof(float));
				memcpy(&y1[b*n_out], y[n_train+n_proc+b], n_out * sizeof(float));
			}
			kann_set_batch_size(ann, ms);
 80044a8:	e0bffa17 	ldw	r2,-24(fp)
 80044ac:	10c00017 	ldw	r3,0(r2)
 80044b0:	e0bffa17 	ldw	r2,-24(fp)
 80044b4:	10800117 	ldw	r2,4(r2)
 80044b8:	e1bff417 	ldw	r6,-48(fp)
 80044bc:	100b883a 	mov	r5,r2
 80044c0:	1809883a 	mov	r4,r3
 80044c4:	80073100 	call	8007310 <kad_sync_dim>
			val_cost += kann_cost(ann, 0, 0) * ms;
 80044c8:	000d883a 	mov	r6,zero
 80044cc:	000b883a 	mov	r5,zero
 80044d0:	e13ffa17 	ldw	r4,-24(fp)
 80044d4:	8001b380 	call	8001b38 <kann_cost>
 80044d8:	1021883a 	mov	r16,r2
 80044dc:	e13ff417 	ldw	r4,-48(fp)
 80044e0:	801cad80 	call	801cad8 <__floatsisf>
 80044e4:	1007883a 	mov	r3,r2
 80044e8:	180b883a 	mov	r5,r3
 80044ec:	8009883a 	mov	r4,r16
 80044f0:	801c1640 	call	801c164 <__mulsf3>
 80044f4:	1007883a 	mov	r3,r2
 80044f8:	1805883a 	mov	r2,r3
 80044fc:	1009883a 	mov	r4,r2
 8004500:	801f1c00 	call	801f1c0 <__extendsfdf2>
 8004504:	1009883a 	mov	r4,r2
 8004508:	180b883a 	mov	r5,r3
 800450c:	200d883a 	mov	r6,r4
 8004510:	280f883a 	mov	r7,r5
 8004514:	e13fe417 	ldw	r4,-112(fp)
 8004518:	e17fe517 	ldw	r5,-108(fp)
 800451c:	801cc080 	call	801cc08 <__adddf3>
 8004520:	1009883a 	mov	r4,r2
 8004524:	180b883a 	mov	r5,r3
 8004528:	e13fe415 	stw	r4,-112(fp)
 800452c:	e17fe515 	stw	r5,-108(fp)
			c = kann_class_error(ann, &b);
 8004530:	e0bff904 	addi	r2,fp,-28
 8004534:	100b883a 	mov	r5,r2
 8004538:	e13ffa17 	ldw	r4,-24(fp)
 800453c:	8001b8c0 	call	8001b8c <kann_class_error>
 8004540:	e0bff515 	stw	r2,-44(fp)
			n_val_err += c, n_val_base += b;
 8004544:	e0ffdf17 	ldw	r3,-132(fp)
 8004548:	e0bff517 	ldw	r2,-44(fp)
 800454c:	1885883a 	add	r2,r3,r2
 8004550:	e0bfdf15 	stw	r2,-132(fp)
 8004554:	e0bff917 	ldw	r2,-28(fp)
 8004558:	e0ffe117 	ldw	r3,-124(fp)
 800455c:	1885883a 	add	r2,r3,r2
 8004560:	e0bfe115 	stw	r2,-124(fp)
			n_proc += ms;
 8004564:	e0ffdd17 	ldw	r3,-140(fp)
 8004568:	e0bff417 	ldw	r2,-48(fp)
 800456c:	1885883a 	add	r2,r3,r2
 8004570:	e0bfdd15 	stw	r2,-140(fp)
			n_proc += ms;
		}
		train_cost /= n_train;
		kann_switch(ann, 0);
		n_proc = 0;
		while (n_proc < n_val) {
 8004574:	e0ffdd17 	ldw	r3,-140(fp)
 8004578:	e0bfee17 	ldw	r2,-72(fp)
 800457c:	18bf8b16 	blt	r3,r2,80043ac <kann_train_fnn1+0x588>
			val_cost += kann_cost(ann, 0, 0) * ms;
			c = kann_class_error(ann, &b);
			n_val_err += c, n_val_base += b;
			n_proc += ms;
		}
		if (n_val > 0) val_cost /= n_val;
 8004580:	e0bfee17 	ldw	r2,-72(fp)
 8004584:	00800d0e 	bge	zero,r2,80045bc <kann_train_fnn1+0x798>
 8004588:	e13fee17 	ldw	r4,-72(fp)
 800458c:	801f0d80 	call	801f0d8 <__floatsidf>
 8004590:	1009883a 	mov	r4,r2
 8004594:	180b883a 	mov	r5,r3
 8004598:	200d883a 	mov	r6,r4
 800459c:	280f883a 	mov	r7,r5
 80045a0:	e13fe417 	ldw	r4,-112(fp)
 80045a4:	e17fe517 	ldw	r5,-108(fp)
 80045a8:	801d4c00 	call	801d4c0 <__divdf3>
 80045ac:	1009883a 	mov	r4,r2
 80045b0:	180b883a 	mov	r5,r3
 80045b4:	e13fe415 	stw	r4,-112(fp)
 80045b8:	e17fe515 	stw	r5,-108(fp)
		if (kann_verbose >= 3) {
 80045bc:	d0a00017 	ldw	r2,-32768(gp)
 80045c0:	108000d0 	cmplti	r2,r2,3
 80045c4:	1000571e 	bne	r2,zero,8004724 <kann_train_fnn1+0x900>
			fprintf(stderr, "epoch: %d; training cost: %g", i+1, train_cost);
 80045c8:	d0a00f17 	ldw	r2,-32708(gp)
 80045cc:	10c00317 	ldw	r3,12(r2)
 80045d0:	e0bfd817 	ldw	r2,-160(fp)
 80045d4:	11000044 	addi	r4,r2,1
 80045d8:	e0bfe317 	ldw	r2,-116(fp)
 80045dc:	d8800015 	stw	r2,0(sp)
 80045e0:	e1ffe217 	ldw	r7,-120(fp)
 80045e4:	200d883a 	mov	r6,r4
 80045e8:	014200f4 	movhi	r5,2051
 80045ec:	2954aa04 	addi	r5,r5,21160
 80045f0:	1809883a 	mov	r4,r3
 80045f4:	80202f40 	call	80202f4 <fprintf>
			if (n_train_base) fprintf(stderr, " (class error: %.2f%%)", 100.0f * n_train_err / n_train);
 80045f8:	e0bfe017 	ldw	r2,-128(fp)
 80045fc:	10001c26 	beq	r2,zero,8004670 <kann_train_fnn1+0x84c>
 8004600:	d0a00f17 	ldw	r2,-32708(gp)
 8004604:	14000317 	ldw	r16,12(r2)
 8004608:	e13fde17 	ldw	r4,-136(fp)
 800460c:	801cad80 	call	801cad8 <__floatsisf>
 8004610:	1007883a 	mov	r3,r2
 8004614:	0150b234 	movhi	r5,17096
 8004618:	1809883a 	mov	r4,r3
 800461c:	801c1640 	call	801c164 <__mulsf3>
 8004620:	1007883a 	mov	r3,r2
 8004624:	1823883a 	mov	r17,r3
 8004628:	e13fef17 	ldw	r4,-68(fp)
 800462c:	801cad80 	call	801cad8 <__floatsisf>
 8004630:	1007883a 	mov	r3,r2
 8004634:	180b883a 	mov	r5,r3
 8004638:	8809883a 	mov	r4,r17
 800463c:	801baf40 	call	801baf4 <__divsf3>
 8004640:	1007883a 	mov	r3,r2
 8004644:	1805883a 	mov	r2,r3
 8004648:	1009883a 	mov	r4,r2
 800464c:	801f1c00 	call	801f1c0 <__extendsfdf2>
 8004650:	1009883a 	mov	r4,r2
 8004654:	180b883a 	mov	r5,r3
 8004658:	200d883a 	mov	r6,r4
 800465c:	280f883a 	mov	r7,r5
 8004660:	014200f4 	movhi	r5,2051
 8004664:	2954b204 	addi	r5,r5,21192
 8004668:	8009883a 	mov	r4,r16
 800466c:	80202f40 	call	80202f4 <fprintf>
			if (n_val > 0) {
 8004670:	e0bfee17 	ldw	r2,-72(fp)
 8004674:	0080260e 	bge	zero,r2,8004710 <kann_train_fnn1+0x8ec>
				fprintf(stderr, "; validation cost: %g", val_cost);
 8004678:	d0a00f17 	ldw	r2,-32708(gp)
 800467c:	10800317 	ldw	r2,12(r2)
 8004680:	e1bfe417 	ldw	r6,-112(fp)
 8004684:	e1ffe517 	ldw	r7,-108(fp)
 8004688:	014200f4 	movhi	r5,2051
 800468c:	2954b804 	addi	r5,r5,21216
 8004690:	1009883a 	mov	r4,r2
 8004694:	80202f40 	call	80202f4 <fprintf>
				if (n_val_base) fprintf(stderr, " (class error: %.2f%%)", 100.0f * n_val_err / n_val);
 8004698:	e0bfe117 	ldw	r2,-124(fp)
 800469c:	10001c26 	beq	r2,zero,8004710 <kann_train_fnn1+0x8ec>
 80046a0:	d0a00f17 	ldw	r2,-32708(gp)
 80046a4:	14000317 	ldw	r16,12(r2)
 80046a8:	e13fdf17 	ldw	r4,-132(fp)
 80046ac:	801cad80 	call	801cad8 <__floatsisf>
 80046b0:	1007883a 	mov	r3,r2
 80046b4:	0150b234 	movhi	r5,17096
 80046b8:	1809883a 	mov	r4,r3
 80046bc:	801c1640 	call	801c164 <__mulsf3>
 80046c0:	1007883a 	mov	r3,r2
 80046c4:	1823883a 	mov	r17,r3
 80046c8:	e13fee17 	ldw	r4,-72(fp)
 80046cc:	801cad80 	call	801cad8 <__floatsisf>
 80046d0:	1007883a 	mov	r3,r2
 80046d4:	180b883a 	mov	r5,r3
 80046d8:	8809883a 	mov	r4,r17
 80046dc:	801baf40 	call	801baf4 <__divsf3>
 80046e0:	1007883a 	mov	r3,r2
 80046e4:	1805883a 	mov	r2,r3
 80046e8:	1009883a 	mov	r4,r2
 80046ec:	801f1c00 	call	801f1c0 <__extendsfdf2>
 80046f0:	1009883a 	mov	r4,r2
 80046f4:	180b883a 	mov	r5,r3
 80046f8:	200d883a 	mov	r6,r4
 80046fc:	280f883a 	mov	r7,r5
 8004700:	014200f4 	movhi	r5,2051
 8004704:	2954b204 	addi	r5,r5,21192
 8004708:	8009883a 	mov	r4,r16
 800470c:	80202f40 	call	80202f4 <fprintf>
			}
			fputc('\n', stderr);
 8004710:	d0a00f17 	ldw	r2,-32708(gp)
 8004714:	10800317 	ldw	r2,12(r2)
 8004718:	100b883a 	mov	r5,r2
 800471c:	01000284 	movi	r4,10
 8004720:	80203740 	call	8020374 <fputc>
		}
		if (i >= max_drop_streak && n_val > 0) {
 8004724:	e0ffd817 	ldw	r3,-160(fp)
 8004728:	e0800217 	ldw	r2,8(fp)
 800472c:	18802d16 	blt	r3,r2,80047e4 <kann_train_fnn1+0x9c0>
 8004730:	e0bfee17 	ldw	r2,-72(fp)
 8004734:	00802b0e 	bge	zero,r2,80047e4 <kann_train_fnn1+0x9c0>
			if (val_cost < min_val_cost) {
 8004738:	e13fdc17 	ldw	r4,-144(fp)
 800473c:	801f1c00 	call	801f1c0 <__extendsfdf2>
 8004740:	1011883a 	mov	r8,r2
 8004744:	1813883a 	mov	r9,r3
 8004748:	e1bfe417 	ldw	r6,-112(fp)
 800474c:	e1ffe517 	ldw	r7,-108(fp)
 8004750:	4009883a 	mov	r4,r8
 8004754:	480b883a 	mov	r5,r9
 8004758:	801de440 	call	801de44 <__gedf2>
 800475c:	00801b0e 	bge	zero,r2,80047cc <kann_train_fnn1+0x9a8>
				min_set = 1;
 8004760:	00800044 	movi	r2,1
 8004764:	e0bfdb15 	stw	r2,-148(fp)
				memcpy(min_x, ann->x, n_var * sizeof(float));
 8004768:	e0bffa17 	ldw	r2,-24(fp)
 800476c:	10c00217 	ldw	r3,8(r2)
 8004770:	e0bfe817 	ldw	r2,-96(fp)
 8004774:	1085883a 	add	r2,r2,r2
 8004778:	1085883a 	add	r2,r2,r2
 800477c:	100d883a 	mov	r6,r2
 8004780:	180b883a 	mov	r5,r3
 8004784:	e13ff017 	ldw	r4,-64(fp)
 8004788:	80223140 	call	8022314 <memcpy>
				memcpy(min_c, ann->c, n_const * sizeof(float));
 800478c:	e0bffa17 	ldw	r2,-24(fp)
 8004790:	10c00417 	ldw	r3,16(r2)
 8004794:	e0bfe917 	ldw	r2,-92(fp)
 8004798:	1085883a 	add	r2,r2,r2
 800479c:	1085883a 	add	r2,r2,r2
 80047a0:	100d883a 	mov	r6,r2
 80047a4:	180b883a 	mov	r5,r3
 80047a8:	e13ff117 	ldw	r4,-60(fp)
 80047ac:	80223140 	call	8022314 <memcpy>
				drop_streak = 0;
 80047b0:	e03fda15 	stw	zero,-152(fp)
				min_val_cost = (float)val_cost;
 80047b4:	e13fe417 	ldw	r4,-112(fp)
 80047b8:	e17fe517 	ldw	r5,-108(fp)
 80047bc:	801f2dc0 	call	801f2dc <__truncdfsf2>
 80047c0:	1007883a 	mov	r3,r2
 80047c4:	e0ffdc15 	stw	r3,-144(fp)
 80047c8:	00000606 	br	80047e4 <kann_train_fnn1+0x9c0>
			} else if (++drop_streak >= max_drop_streak)
 80047cc:	e0bfda17 	ldw	r2,-152(fp)
 80047d0:	10800044 	addi	r2,r2,1
 80047d4:	e0bfda15 	stw	r2,-152(fp)
 80047d8:	e0ffda17 	ldw	r3,-152(fp)
 80047dc:	e0800217 	ldw	r2,8(fp)
 80047e0:	1880070e 	bge	r3,r2,8004800 <kann_train_fnn1+0x9dc>
	x1 = (float*)malloc(n_in  * mini_size * sizeof(float));
	y1 = (float*)malloc(n_out * mini_size * sizeof(float));
	kann_feed_bind(ann, KANN_F_IN,    0, &x1);
	kann_feed_bind(ann, KANN_F_TRUTH, 0, &y1);

	for (i = 0; i < max_epoch; ++i) {
 80047e4:	e0bfd817 	ldw	r2,-160(fp)
 80047e8:	10800044 	addi	r2,r2,1
 80047ec:	e0bfd815 	stw	r2,-160(fp)
 80047f0:	e0ffd817 	ldw	r3,-160(fp)
 80047f4:	e0bffd17 	ldw	r2,-12(fp)
 80047f8:	18be3f16 	blt	r3,r2,80040f8 <kann_train_fnn1+0x2d4>
 80047fc:	00000106 	br	8004804 <kann_train_fnn1+0x9e0>
				memcpy(min_x, ann->x, n_var * sizeof(float));
				memcpy(min_c, ann->c, n_const * sizeof(float));
				drop_streak = 0;
				min_val_cost = (float)val_cost;
			} else if (++drop_streak >= max_drop_streak)
				break;
 8004800:	0001883a 	nop
		}
	}
	if (min_set) {
 8004804:	e0bfdb17 	ldw	r2,-148(fp)
 8004808:	10001226 	beq	r2,zero,8004854 <kann_train_fnn1+0xa30>
		memcpy(ann->x, min_x, n_var * sizeof(float));
 800480c:	e0bffa17 	ldw	r2,-24(fp)
 8004810:	10c00217 	ldw	r3,8(r2)
 8004814:	e0bfe817 	ldw	r2,-96(fp)
 8004818:	1085883a 	add	r2,r2,r2
 800481c:	1085883a 	add	r2,r2,r2
 8004820:	100d883a 	mov	r6,r2
 8004824:	e17ff017 	ldw	r5,-64(fp)
 8004828:	1809883a 	mov	r4,r3
 800482c:	80223140 	call	8022314 <memcpy>
		memcpy(ann->c, min_c, n_const * sizeof(float));
 8004830:	e0bffa17 	ldw	r2,-24(fp)
 8004834:	10c00417 	ldw	r3,16(r2)
 8004838:	e0bfe917 	ldw	r2,-92(fp)
 800483c:	1085883a 	add	r2,r2,r2
 8004840:	1085883a 	add	r2,r2,r2
 8004844:	100d883a 	mov	r6,r2
 8004848:	e17ff117 	ldw	r5,-60(fp)
 800484c:	1809883a 	mov	r4,r3
 8004850:	80223140 	call	8022314 <memcpy>
	}

	free(min_c); free(min_x); free(y1); free(x1); free(y); free(x); free(shuf); free(r);
 8004854:	e13ff117 	ldw	r4,-60(fp)
 8004858:	80219ec0 	call	80219ec <free>
 800485c:	e13ff017 	ldw	r4,-64(fp)
 8004860:	80219ec0 	call	80219ec <free>
 8004864:	e0bff717 	ldw	r2,-36(fp)
 8004868:	1009883a 	mov	r4,r2
 800486c:	80219ec0 	call	80219ec <free>
 8004870:	e0bff617 	ldw	r2,-40(fp)
 8004874:	1009883a 	mov	r4,r2
 8004878:	80219ec0 	call	80219ec <free>
 800487c:	e13fed17 	ldw	r4,-76(fp)
 8004880:	80219ec0 	call	80219ec <free>
 8004884:	e13fec17 	ldw	r4,-80(fp)
 8004888:	80219ec0 	call	80219ec <free>
 800488c:	e13feb17 	ldw	r4,-84(fp)
 8004890:	80219ec0 	call	80219ec <free>
 8004894:	e13fea17 	ldw	r4,-88(fp)
 8004898:	80219ec0 	call	80219ec <free>
	return i;
 800489c:	e0bfd817 	ldw	r2,-160(fp)
}
 80048a0:	e6fffe04 	addi	sp,fp,-8
 80048a4:	dfc00317 	ldw	ra,12(sp)
 80048a8:	df000217 	ldw	fp,8(sp)
 80048ac:	dc400117 	ldw	r17,4(sp)
 80048b0:	dc000017 	ldw	r16,0(sp)
 80048b4:	dec00404 	addi	sp,sp,16
 80048b8:	f800283a 	ret

080048bc <kann_cost_fnn1>:

float kann_cost_fnn1(kann_t *ann, int n, float **x, float **y)
{
 80048bc:	f811883a 	mov	r8,ra
 80048c0:	802e3940 	call	802e394 <_mcount>
 80048c4:	403f883a 	mov	ra,r8
 80048c8:	deffef04 	addi	sp,sp,-68
 80048cc:	dfc01015 	stw	ra,64(sp)
 80048d0:	df000f15 	stw	fp,60(sp)
 80048d4:	dc000e15 	stw	r16,56(sp)
 80048d8:	df000f04 	addi	fp,sp,60
 80048dc:	e13ffb15 	stw	r4,-20(fp)
 80048e0:	e17ffc15 	stw	r5,-16(fp)
 80048e4:	e1bffd15 	stw	r6,-12(fp)
 80048e8:	e1fffe15 	stw	r7,-8(fp)
	int n_in, n_out, n_proc = 0, mini_size = 64 < n? 64 : n;
 80048ec:	e03ff115 	stw	zero,-60(fp)
 80048f0:	e0bffc17 	ldw	r2,-16(fp)
 80048f4:	10c01050 	cmplti	r3,r2,65
 80048f8:	1800011e 	bne	r3,zero,8004900 <kann_cost_fnn1+0x44>
